(dp1
S'created_on'
p2
(dp3
S'type'
p4
S'datetime'
p5
sS'sortable'
p6
I5
sS'sql'
p7
S'TIMESTAMP'
p8
ssS'created_by'
p9
(dp10
g4
S'reference auth_user'
p11
sg6
I4
sg7
S'INTEGER REFERENCES auth_user(id) ON DELETE CASCADE'
p12
ssS'id'
p13
(dp14
g4
g13
sg6
I1
sg7
S'INTEGER PRIMARY KEY AUTOINCREMENT'
p15
ssS'links'
p16
(dp17
g4
S'integer'
p18
sg6
I3
sg7
S'INTEGER'
p19
ssS'name'
p20
(dp21
g4
S'string'
p22
sg6
I2
sg7
S'CHAR(512)'
p23
ss.