(dp1
S'output'
p2
S"<type 'exceptions.IOError'> [Errno 2] No such file or directory: '/home/dotcloud/environment.json'"
p3
sS'layer'
p4
S'/windows/Users/Thomas/Dropbox/appz/2011/dotcloud_web2py/applications/fansubcheck/models/db.py'
p5
sS'code'
p6
S'# -*- coding: utf-8 -*-\n\n#########################################################################\n## This scaffolding model makes your app work on Google App Engine too\n## File is released under public domain and you can use without limitations\n#########################################################################\n\n## if SSL/HTTPS is properly configured and you want all HTTP requests to\n## be redirected to HTTPS, uncomment the line below:\n# request.requires_https()\n\nimport json\n\nif False:\n    from gluon.dal import DAL, Field\n    from gluon.contrib.pysimplesoap.server import request\n    from papyon.event import session\n    from re import T\n    from gluon.contrib.pysimplesoap.client import response\n\nif not request.env.web2py_runtime_gae:\n    ## if NOT running on Google App Engine use SQLite or other DB\n    db = DAL(\'sqlite://storage.sqlite\')\n    with open(\'/home/dotcloud/environment.json\') as f:\n        env = json.load(f)\n    db = DAL(\'postgres://\'+env[\'DOTCLOUD_DATA_MYSQL_LOGIN\']+\':\'+env[\'DOTCLOUD_DATA_MYSQL_PASSWORD\']+"@"+env[\'DOTCLOUD_DATA_MYSQL_HOST\']+":"+str(env[\'DOTCLOUD_DATA_MYSQL_PORT\'])+\'/template1\')\n    #db = DAL(\'mysql://fansubcheck:yE3xEAiFW9@fansubcheck.mysql.fluxflex.com:3306/fansubcheck\')\nelse:\n    ## connect to Google BigTable (optional \'google:datastore://namespace\')\n    db = DAL(\'google:datastore\')\n    ## store sessions and tickets there\n    session.connect(request, response, db = db)\n    ## or store session in Memcache, Redis, etc.\n    ## from gluon.contrib.memdb import MEMDB\n    ## from google.appengine.api.memcache import Client\n    ## session.connect(request, response, db = MEMDB(Client()))\n\n## by default give a view/generic.extension to all actions from localhost\n## none otherwise. a pattern can be \'controller/function.extension\'\nresponse.generic_patterns = [\'*\'] if request.is_local else []\n## (optional) optimize handling of static files\n# response.optimize_css = \'concat,minify,inline\'\n# response.optimize_js = \'concat,minify,inline\'\n\n#########################################################################\n## Here is sample code if you need for\n## - email capabilities\n## - authentication (registration, login, logout, ... )\n## - authorization (role based authorization)\n## - services (xml, csv, json, xmlrpc, jsonrpc, amf, rss)\n## - old style crud actions\n## (more options discussed in gluon/tools.py)\n#########################################################################\n\nfrom gluon.tools import Auth, Crud, Service, PluginManager, prettydate\nauth = Auth(db, hmac_key=Auth.get_or_create_key())\ncrud, service, plugins = Crud(db), Service(), PluginManager()\n\n## create all tables needed by auth if not custom tables\n\n########################################\ndb.define_table(\'auth_user\',\n    Field(\'username\', type=\'string\',\n          label=T(\'Username\')),\n    Field(\'first_name\', type=\'string\',\n          label=T(\'First Name\')),\n    Field(\'last_name\', type=\'string\',\n          label=T(\'Last Name\')),\n    Field(\'email\', type=\'string\',\n          label=T(\'Email\')),\n    Field(\'password\', type=\'password\',\n          readable=False,\n          label=T(\'Password\')),\n    Field(\'created_on\',\'datetime\',default=request.now,\n          label=T(\'Created On\'),writable=False,readable=False),\n    Field(\'modified_on\',\'datetime\',default=request.now,\n          label=T(\'Modified On\'),writable=False,readable=False,\n          update=request.now),\n    Field(\'registration_key\',default=\'\',\n          writable=False,readable=False),\n    Field(\'reset_password_key\',default=\'\',\n          writable=False,readable=False),\n    Field(\'registration_id\',default=\'\',\n          writable=False,readable=False),\n    format=\'%(username)s\',\n    migrate=settings.migrate)\n\ndb.auth_user.first_name.requires = IS_NOT_EMPTY(error_message=auth.messages.is_empty)\ndb.auth_user.last_name.requires = IS_NOT_EMPTY(error_message=auth.messages.is_empty)\ndb.auth_user.password.requires = CRYPT(key=auth.settings.hmac_key)\ndb.auth_user.username.requires = IS_NOT_IN_DB(db, db.auth_user.username)\ndb.auth_user.registration_id.requires = IS_NOT_IN_DB(db, db.auth_user.registration_id)\ndb.auth_user.email.requires = (IS_EMAIL(error_message=auth.messages.invalid_email),\n                               IS_NOT_IN_DB(db, db.auth_user.email))\ndb.auth_user.first_name.writable = True\ndb.auth_user.last_name.writable  = True\ndb.auth_user.username.writable = True\ndb.auth_user.email.writable  = True\nauth.settings.create_user_groups = False\nauth.define_tables(migrate = settings.migrate)\n\n## configure email\nmail=auth.settings.mailer\nmail.settings.server = \'smtp.gmail.com:587\'\nmail.settings.sender = \'thomas.dallagnese@gmail.com\'\nmail.settings.login = \'thomas.dallagnese@gmail.com:csg4ever\'\n\n## configure auth policy\nauth.settings.registration_requires_verification = False\nauth.settings.registration_requires_approval = False\nauth.settings.reset_password_requires_verification = True\n\n## if you need to use OpenID, Facebook, MySpace, Twitter, Linkedin, etc.\n## register with janrain.com, write your domain:api_key in private/janrain.key\nfrom gluon.contrib.login_methods.rpx_account import use_janrain, RPXAccount\n#use_janrain(auth,filename=\'private/janrain.key\')\n#auth.settings.actions_disabled.append(\'retrieve_username\')\nfrom gluon.contrib.login_methods.extended_login_form import ExtendedLoginForm\n# define where to go after RPX login\nif request.vars._next:\n    url = "http://www.fansubcheck.com/fansubcheck/default/user/login?_next=%s" % request.vars._next\nelse:\n    url = "http://www.fansubcheck.com/fansubcheck/default/user/login"\nother_form = RPXAccount(request, api_key=\'56b1a6942038b92a67db2c17ba4bd2ce1dbf5dd8\', domain=\'fansubcheck\', url=url)\nauth.settings.login_form = ExtendedLoginForm(auth, other_form, signals=[\'token\'])\n\n#########################################################################\n## Define your tables below (or better in another model file) for example\n##\n## >>> db.define_table(\'mytable\',Field(\'myfield\',\'string\'))\n##\n## Fields can be \'string\',\'text\',\'password\',\'integer\',\'double\',\'boolean\'\n##       \'date\',\'time\',\'datetime\',\'blob\',\'upload\', \'reference TABLENAME\'\n## There is an implicit \'id integer autoincrement\' field\n## Consult manual for more options, validators, etc.\n##\n## More API examples for controllers:\n##\n## >>> db.mytable.insert(myfield=\'value\')\n## >>> rows=db(db.mytable.myfield==\'value\').select(db.mytable.ALL)\n## >>> for row in rows: print row.id, row.myfield\n#########################################################################\n\n\nmail.settings.server = settings.email_server\nmail.settings.sender = settings.email_sender\nmail.settings.login = settings.email_login\n'
p7
sS'snapshot'
p8
(dp9
S'exception'
p10
(dp11
S'__getslice__'
p12
S"<method-wrapper '__getslice__' of exceptions.IOError object>"
p13
sS'__str__'
p14
S"<method-wrapper '__str__' of exceptions.IOError object>"
p15
sS'__reduce__'
p16
S'<built-in method __reduce__ of exceptions.IOError object>'
p17
sS'__dict__'
p18
S'{}'
p19
sS'__sizeof__'
p20
S'<built-in method __sizeof__ of exceptions.IOError object>'
p21
sS'__init__'
p22
S"<method-wrapper '__init__' of exceptions.IOError object>"
p23
sS'__setattr__'
p24
S"<method-wrapper '__setattr__' of exceptions.IOError object>"
p25
sS'__reduce_ex__'
p26
S'<built-in method __reduce_ex__ of exceptions.IOError object>'
p27
sS'__new__'
p28
S'<built-in method __new__ of type object>'
p29
sS'errno'
p30
S'2'
sS'__format__'
p31
S'<built-in method __format__ of exceptions.IOError object>'
p32
sS'__class__'
p33
S"<type 'exceptions.IOError'>"
p34
sS'filename'
p35
S"'/home/dotcloud/environment.json'"
p36
sS'__doc__'
p37
S"'I/O operation failed.'"
p38
sS'__getitem__'
p39
S"<method-wrapper '__getitem__' of exceptions.IOError object>"
p40
sS'__setstate__'
p41
S'<built-in method __setstate__ of exceptions.IOError object>'
p42
sS'__getattribute__'
p43
S"<method-wrapper '__getattribute__' of exceptions.IOError object>"
p44
sS'args'
p45
S"(2, 'No such file or directory')"
p46
sS'__subclasshook__'
p47
S'<built-in method __subclasshook__ of type object>'
p48
sS'__unicode__'
p49
S'<built-in method __unicode__ of exceptions.IOError object>'
p50
sS'strerror'
p51
S"'No such file or directory'"
p52
sS'__delattr__'
p53
S"<method-wrapper '__delattr__' of exceptions.IOError object>"
p54
sS'__repr__'
p55
S"<method-wrapper '__repr__' of exceptions.IOError object>"
p56
sS'__hash__'
p57
S"<method-wrapper '__hash__' of exceptions.IOError object>"
p58
ssS'evalue'
p59
S"[Errno 2] No such file or directory: '/home/dotcloud/environment.json'"
p60
sS'request'
p61
ccopy_reg
_reconstructor
p62
(cgluon.html
BEAUTIFY
p63
c__builtin__
object
p64
NtRp65
(dp66
S'attributes'
p67
(dp68
sS'components'
p69
(lp70
g62
(cgluon.html
TABLE
p71
g64
NtRp72
(dp73
g67
(dp74
S'level'
p75
I5
ssS'parent'
p76
Nsg69
(lp77
g62
(cgluon.html
TR
p78
g64
NtRp79
(dp80
g67
(dp81
sg76
g72
sg69
(lp82
g62
(cgluon.html
TD
p83
g64
NtRp84
(dp85
g67
(dp86
S'_style'
p87
S'font-weight:bold;vertical-align:top'
p88
ssg76
g79
sg69
(lp89
S'ajax'
p90
asbag62
(g83
g64
NtRp91
(dp92
g67
(dp93
S'_valign'
p94
S'top'
p95
ssg76
g79
sg69
(lp96
S':'
asbag62
(g83
g64
NtRp97
(dp98
g67
(dp99
sg76
g79
sg69
(lp100
g62
(g63
g64
NtRp101
(dp102
g67
(dp103
g75
I5
ssg76
g97
sg69
(lp104
S'False'
p105
asbasbasbag62
(g78
g64
NtRp106
(dp107
g67
(dp108
sg76
g72
sg69
(lp109
g62
(g83
g64
NtRp110
(dp111
g67
(dp112
g87
g88
ssg76
g106
sg69
(lp113
S'application'
p114
asbag62
(g83
g64
NtRp115
(dp116
g67
(dp117
g94
g95
ssg76
g106
sg69
(lp118
S':'
asbag62
(g83
g64
NtRp119
(dp120
g67
(dp121
sg76
g106
sg69
(lp122
g62
(g63
g64
NtRp123
(dp124
g67
(dp125
g75
I5
ssg76
g119
sg69
(lp126
S'fansubcheck'
p127
asbasbasbag62
(g78
g64
NtRp128
(dp129
g67
(dp130
sg76
g72
sg69
(lp131
g62
(g83
g64
NtRp132
(dp133
g67
(dp134
g87
g88
ssg76
g128
sg69
(lp135
g45
asbag62
(g83
g64
NtRp136
(dp137
g67
(dp138
g94
g95
ssg76
g128
sg69
(lp139
S':'
asbag62
(g83
g64
NtRp140
(dp141
g67
(dp142
sg76
g128
sg69
(lp143
g62
(g63
g64
NtRp144
(dp145
g67
(dp146
g75
I5
ssg76
g140
sg69
(lp147
g62
(g71
g64
NtRp148
(dp149
g67
(dp150
g75
I4
ssg76
Nsg69
(lp151
sbasbasbasbag62
(g78
g64
NtRp152
(dp153
g67
(dp154
sg76
g72
sg69
(lp155
g62
(g83
g64
NtRp156
(dp157
g67
(dp158
g87
g88
ssg76
g152
sg69
(lp159
S'body'
p160
asbag62
(g83
g64
NtRp161
(dp162
g67
(dp163
g94
g95
ssg76
g152
sg69
(lp164
S':'
asbag62
(g83
g64
NtRp165
(dp166
g67
(dp167
sg76
g152
sg69
(lp168
g62
(g63
g64
NtRp169
(dp170
g67
(dp171
g75
I5
ssg76
g165
sg69
(lp172
S'<cStringIO.StringO object at 0x337a8f0>'
p173
asbasbasbag62
(g78
g64
NtRp174
(dp175
g67
(dp176
sg76
g72
sg69
(lp177
g62
(g83
g64
NtRp178
(dp179
g67
(dp180
g87
g88
ssg76
g174
sg69
(lp181
S'client'
p182
asbag62
(g83
g64
NtRp183
(dp184
g67
(dp185
g94
g95
ssg76
g174
sg69
(lp186
S':'
asbag62
(g83
g64
NtRp187
(dp188
g67
(dp189
sg76
g174
sg69
(lp190
g62
(g63
g64
NtRp191
(dp192
g67
(dp193
g75
I5
ssg76
g187
sg69
(lp194
S'127.0.0.1'
p195
asbasbasbag62
(g78
g64
NtRp196
(dp197
g67
(dp198
sg76
g72
sg69
(lp199
g62
(g83
g64
NtRp200
(dp201
g67
(dp202
g87
g88
ssg76
g196
sg69
(lp203
S'controller'
p204
asbag62
(g83
g64
NtRp205
(dp206
g67
(dp207
g94
g95
ssg76
g196
sg69
(lp208
S':'
asbag62
(g83
g64
NtRp209
(dp210
g67
(dp211
sg76
g196
sg69
(lp212
g62
(g63
g64
NtRp213
(dp214
g67
(dp215
g75
I5
ssg76
g209
sg69
(lp216
S'default'
p217
asbasbasbag62
(g78
g64
NtRp218
(dp219
g67
(dp220
sg76
g72
sg69
(lp221
g62
(g83
g64
NtRp222
(dp223
g67
(dp224
g87
g88
ssg76
g218
sg69
(lp225
S'cookies'
p226
asbag62
(g83
g64
NtRp227
(dp228
g67
(dp229
g94
g95
ssg76
g218
sg69
(lp230
S':'
asbag62
(g83
g64
NtRp231
(dp232
g67
(dp233
sg76
g218
sg69
(lp234
g62
(g63
g64
NtRp235
(dp236
g67
(dp237
g75
I5
ssg76
g231
sg69
(lp238
g62
(g71
g64
NtRp239
(dp240
g67
(dp241
g75
I4
ssg76
Nsg69
(lp242
g62
(g78
g64
NtRp243
(dp244
g67
(dp245
sg76
g239
sg69
(lp246
g62
(g83
g64
NtRp247
(dp248
g67
(dp249
g87
g88
ssg76
g243
sg69
(lp250
S'ext-stateComments'
p251
asbag62
(g83
g64
NtRp252
(dp253
g67
(dp254
g94
g95
ssg76
g243
sg69
(lp255
S':'
asbag62
(g83
g64
NtRp256
(dp257
g67
(dp258
sg76
g243
sg69
(lp259
g62
(g63
g64
NtRp260
(dp261
g67
(dp262
g75
I4
ssg76
g256
sg69
(lp263
g62
(g71
g64
NtRp264
(dp265
g67
(dp266
g75
I3
ssg76
Nsg69
(lp267
g62
(g78
g64
NtRp268
(dp269
g67
(dp270
sg76
g264
sg69
(lp271
g62
(g83
g64
NtRp272
(dp273
g67
(dp274
g87
g88
ssg76
g268
sg69
(lp275
S'comment'
p276
asbag62
(g83
g64
NtRp277
(dp278
g67
(dp279
g94
g95
ssg76
g268
sg69
(lp280
S':'
asbag62
(g83
g64
NtRp281
(dp282
g67
(dp283
sg76
g268
sg69
(lp284
g62
(g63
g64
NtRp285
(dp286
g67
(dp287
g75
I3
ssg76
g281
sg69
(lp288
S''
asbasbasbag62
(g78
g64
NtRp289
(dp290
g67
(dp291
sg76
g264
sg69
(lp292
g62
(g83
g64
NtRp293
(dp294
g67
(dp295
g87
g88
ssg76
g289
sg69
(lp296
S'domain'
p297
asbag62
(g83
g64
NtRp298
(dp299
g67
(dp300
g94
g95
ssg76
g289
sg69
(lp301
S':'
asbag62
(g83
g64
NtRp302
(dp303
g67
(dp304
sg76
g289
sg69
(lp305
g62
(g63
g64
NtRp306
(dp307
g67
(dp308
g75
I3
ssg76
g302
sg69
(lp309
S''
asbasbasbag62
(g78
g64
NtRp310
(dp311
g67
(dp312
sg76
g264
sg69
(lp313
g62
(g83
g64
NtRp314
(dp315
g67
(dp316
g87
g88
ssg76
g310
sg69
(lp317
S'expires'
p318
asbag62
(g83
g64
NtRp319
(dp320
g67
(dp321
g94
g95
ssg76
g310
sg69
(lp322
S':'
asbag62
(g83
g64
NtRp323
(dp324
g67
(dp325
sg76
g310
sg69
(lp326
g62
(g63
g64
NtRp327
(dp328
g67
(dp329
g75
I3
ssg76
g323
sg69
(lp330
S''
asbasbasbag62
(g78
g64
NtRp331
(dp332
g67
(dp333
sg76
g264
sg69
(lp334
g62
(g83
g64
NtRp335
(dp336
g67
(dp337
g87
g88
ssg76
g331
sg69
(lp338
S'httponly'
p339
asbag62
(g83
g64
NtRp340
(dp341
g67
(dp342
g94
g95
ssg76
g331
sg69
(lp343
S':'
asbag62
(g83
g64
NtRp344
(dp345
g67
(dp346
sg76
g331
sg69
(lp347
g62
(g63
g64
NtRp348
(dp349
g67
(dp350
g75
I3
ssg76
g344
sg69
(lp351
S''
asbasbasbag62
(g78
g64
NtRp352
(dp353
g67
(dp354
sg76
g264
sg69
(lp355
g62
(g83
g64
NtRp356
(dp357
g67
(dp358
g87
g88
ssg76
g352
sg69
(lp359
S'max-age'
p360
asbag62
(g83
g64
NtRp361
(dp362
g67
(dp363
g94
g95
ssg76
g352
sg69
(lp364
S':'
asbag62
(g83
g64
NtRp365
(dp366
g67
(dp367
sg76
g352
sg69
(lp368
g62
(g63
g64
NtRp369
(dp370
g67
(dp371
g75
I3
ssg76
g365
sg69
(lp372
S''
asbasbasbag62
(g78
g64
NtRp373
(dp374
g67
(dp375
sg76
g264
sg69
(lp376
g62
(g83
g64
NtRp377
(dp378
g67
(dp379
g87
g88
ssg76
g373
sg69
(lp380
S'path'
p381
asbag62
(g83
g64
NtRp382
(dp383
g67
(dp384
g94
g95
ssg76
g373
sg69
(lp385
S':'
asbag62
(g83
g64
NtRp386
(dp387
g67
(dp388
sg76
g373
sg69
(lp389
g62
(g63
g64
NtRp390
(dp391
g67
(dp392
g75
I3
ssg76
g386
sg69
(lp393
S''
asbasbasbag62
(g78
g64
NtRp394
(dp395
g67
(dp396
sg76
g264
sg69
(lp397
g62
(g83
g64
NtRp398
(dp399
g67
(dp400
g87
g88
ssg76
g394
sg69
(lp401
S'secure'
p402
asbag62
(g83
g64
NtRp403
(dp404
g67
(dp405
g94
g95
ssg76
g394
sg69
(lp406
S':'
asbag62
(g83
g64
NtRp407
(dp408
g67
(dp409
sg76
g394
sg69
(lp410
g62
(g63
g64
NtRp411
(dp412
g67
(dp413
g75
I3
ssg76
g407
sg69
(lp414
S''
asbasbasbag62
(g78
g64
NtRp415
(dp416
g67
(dp417
sg76
g264
sg69
(lp418
g62
(g83
g64
NtRp419
(dp420
g67
(dp421
g87
g88
ssg76
g415
sg69
(lp422
S'version'
p423
asbag62
(g83
g64
NtRp424
(dp425
g67
(dp426
g94
g95
ssg76
g415
sg69
(lp427
S':'
asbag62
(g83
g64
NtRp428
(dp429
g67
(dp430
sg76
g415
sg69
(lp431
g62
(g63
g64
NtRp432
(dp433
g67
(dp434
g75
I3
ssg76
g428
sg69
(lp435
S''
asbasbasbasbasbasbasbag62
(g78
g64
NtRp436
(dp437
g67
(dp438
sg76
g239
sg69
(lp439
g62
(g83
g64
NtRp440
(dp441
g67
(dp442
g87
g88
ssg76
g436
sg69
(lp443
S'ext-stateQCList'
p444
asbag62
(g83
g64
NtRp445
(dp446
g67
(dp447
g94
g95
ssg76
g436
sg69
(lp448
S':'
asbag62
(g83
g64
NtRp449
(dp450
g67
(dp451
sg76
g436
sg69
(lp452
g62
(g63
g64
NtRp453
(dp454
g67
(dp455
g75
I4
ssg76
g449
sg69
(lp456
g62
(g71
g64
NtRp457
(dp458
g67
(dp459
g75
I3
ssg76
Nsg69
(lp460
g62
(g78
g64
NtRp461
(dp462
g67
(dp463
sg76
g457
sg69
(lp464
g62
(g83
g64
NtRp465
(dp466
g67
(dp467
g87
g88
ssg76
g461
sg69
(lp468
g276
asbag62
(g83
g64
NtRp469
(dp470
g67
(dp471
g94
g95
ssg76
g461
sg69
(lp472
S':'
asbag62
(g83
g64
NtRp473
(dp474
g67
(dp475
sg76
g461
sg69
(lp476
g62
(g63
g64
NtRp477
(dp478
g67
(dp479
g75
I3
ssg76
g473
sg69
(lp480
S''
asbasbasbag62
(g78
g64
NtRp481
(dp482
g67
(dp483
sg76
g457
sg69
(lp484
g62
(g83
g64
NtRp485
(dp486
g67
(dp487
g87
g88
ssg76
g481
sg69
(lp488
g297
asbag62
(g83
g64
NtRp489
(dp490
g67
(dp491
g94
g95
ssg76
g481
sg69
(lp492
S':'
asbag62
(g83
g64
NtRp493
(dp494
g67
(dp495
sg76
g481
sg69
(lp496
g62
(g63
g64
NtRp497
(dp498
g67
(dp499
g75
I3
ssg76
g493
sg69
(lp500
S''
asbasbasbag62
(g78
g64
NtRp501
(dp502
g67
(dp503
sg76
g457
sg69
(lp504
g62
(g83
g64
NtRp505
(dp506
g67
(dp507
g87
g88
ssg76
g501
sg69
(lp508
g318
asbag62
(g83
g64
NtRp509
(dp510
g67
(dp511
g94
g95
ssg76
g501
sg69
(lp512
S':'
asbag62
(g83
g64
NtRp513
(dp514
g67
(dp515
sg76
g501
sg69
(lp516
g62
(g63
g64
NtRp517
(dp518
g67
(dp519
g75
I3
ssg76
g513
sg69
(lp520
S''
asbasbasbag62
(g78
g64
NtRp521
(dp522
g67
(dp523
sg76
g457
sg69
(lp524
g62
(g83
g64
NtRp525
(dp526
g67
(dp527
g87
g88
ssg76
g521
sg69
(lp528
g339
asbag62
(g83
g64
NtRp529
(dp530
g67
(dp531
g94
g95
ssg76
g521
sg69
(lp532
S':'
asbag62
(g83
g64
NtRp533
(dp534
g67
(dp535
sg76
g521
sg69
(lp536
g62
(g63
g64
NtRp537
(dp538
g67
(dp539
g75
I3
ssg76
g533
sg69
(lp540
S''
asbasbasbag62
(g78
g64
NtRp541
(dp542
g67
(dp543
sg76
g457
sg69
(lp544
g62
(g83
g64
NtRp545
(dp546
g67
(dp547
g87
g88
ssg76
g541
sg69
(lp548
g360
asbag62
(g83
g64
NtRp549
(dp550
g67
(dp551
g94
g95
ssg76
g541
sg69
(lp552
S':'
asbag62
(g83
g64
NtRp553
(dp554
g67
(dp555
sg76
g541
sg69
(lp556
g62
(g63
g64
NtRp557
(dp558
g67
(dp559
g75
I3
ssg76
g553
sg69
(lp560
S''
asbasbasbag62
(g78
g64
NtRp561
(dp562
g67
(dp563
sg76
g457
sg69
(lp564
g62
(g83
g64
NtRp565
(dp566
g67
(dp567
g87
g88
ssg76
g561
sg69
(lp568
g381
asbag62
(g83
g64
NtRp569
(dp570
g67
(dp571
g94
g95
ssg76
g561
sg69
(lp572
S':'
asbag62
(g83
g64
NtRp573
(dp574
g67
(dp575
sg76
g561
sg69
(lp576
g62
(g63
g64
NtRp577
(dp578
g67
(dp579
g75
I3
ssg76
g573
sg69
(lp580
S''
asbasbasbag62
(g78
g64
NtRp581
(dp582
g67
(dp583
sg76
g457
sg69
(lp584
g62
(g83
g64
NtRp585
(dp586
g67
(dp587
g87
g88
ssg76
g581
sg69
(lp588
g402
asbag62
(g83
g64
NtRp589
(dp590
g67
(dp591
g94
g95
ssg76
g581
sg69
(lp592
S':'
asbag62
(g83
g64
NtRp593
(dp594
g67
(dp595
sg76
g581
sg69
(lp596
g62
(g63
g64
NtRp597
(dp598
g67
(dp599
g75
I3
ssg76
g593
sg69
(lp600
S''
asbasbasbag62
(g78
g64
NtRp601
(dp602
g67
(dp603
sg76
g457
sg69
(lp604
g62
(g83
g64
NtRp605
(dp606
g67
(dp607
g87
g88
ssg76
g601
sg69
(lp608
g423
asbag62
(g83
g64
NtRp609
(dp610
g67
(dp611
g94
g95
ssg76
g601
sg69
(lp612
S':'
asbag62
(g83
g64
NtRp613
(dp614
g67
(dp615
sg76
g601
sg69
(lp616
g62
(g63
g64
NtRp617
(dp618
g67
(dp619
g75
I3
ssg76
g613
sg69
(lp620
S''
asbasbasbasbasbasbasbag62
(g78
g64
NtRp621
(dp622
g67
(dp623
sg76
g239
sg69
(lp624
g62
(g83
g64
NtRp625
(dp626
g67
(dp627
g87
g88
ssg76
g621
sg69
(lp628
S'ext-stateSubs'
p629
asbag62
(g83
g64
NtRp630
(dp631
g67
(dp632
g94
g95
ssg76
g621
sg69
(lp633
S':'
asbag62
(g83
g64
NtRp634
(dp635
g67
(dp636
sg76
g621
sg69
(lp637
g62
(g63
g64
NtRp638
(dp639
g67
(dp640
g75
I4
ssg76
g634
sg69
(lp641
g62
(g71
g64
NtRp642
(dp643
g67
(dp644
g75
I3
ssg76
Nsg69
(lp645
g62
(g78
g64
NtRp646
(dp647
g67
(dp648
sg76
g642
sg69
(lp649
g62
(g83
g64
NtRp650
(dp651
g67
(dp652
g87
g88
ssg76
g646
sg69
(lp653
g276
asbag62
(g83
g64
NtRp654
(dp655
g67
(dp656
g94
g95
ssg76
g646
sg69
(lp657
S':'
asbag62
(g83
g64
NtRp658
(dp659
g67
(dp660
sg76
g646
sg69
(lp661
g62
(g63
g64
NtRp662
(dp663
g67
(dp664
g75
I3
ssg76
g658
sg69
(lp665
S''
asbasbasbag62
(g78
g64
NtRp666
(dp667
g67
(dp668
sg76
g642
sg69
(lp669
g62
(g83
g64
NtRp670
(dp671
g67
(dp672
g87
g88
ssg76
g666
sg69
(lp673
g297
asbag62
(g83
g64
NtRp674
(dp675
g67
(dp676
g94
g95
ssg76
g666
sg69
(lp677
S':'
asbag62
(g83
g64
NtRp678
(dp679
g67
(dp680
sg76
g666
sg69
(lp681
g62
(g63
g64
NtRp682
(dp683
g67
(dp684
g75
I3
ssg76
g678
sg69
(lp685
S''
asbasbasbag62
(g78
g64
NtRp686
(dp687
g67
(dp688
sg76
g642
sg69
(lp689
g62
(g83
g64
NtRp690
(dp691
g67
(dp692
g87
g88
ssg76
g686
sg69
(lp693
g318
asbag62
(g83
g64
NtRp694
(dp695
g67
(dp696
g94
g95
ssg76
g686
sg69
(lp697
S':'
asbag62
(g83
g64
NtRp698
(dp699
g67
(dp700
sg76
g686
sg69
(lp701
g62
(g63
g64
NtRp702
(dp703
g67
(dp704
g75
I3
ssg76
g698
sg69
(lp705
S''
asbasbasbag62
(g78
g64
NtRp706
(dp707
g67
(dp708
sg76
g642
sg69
(lp709
g62
(g83
g64
NtRp710
(dp711
g67
(dp712
g87
g88
ssg76
g706
sg69
(lp713
g339
asbag62
(g83
g64
NtRp714
(dp715
g67
(dp716
g94
g95
ssg76
g706
sg69
(lp717
S':'
asbag62
(g83
g64
NtRp718
(dp719
g67
(dp720
sg76
g706
sg69
(lp721
g62
(g63
g64
NtRp722
(dp723
g67
(dp724
g75
I3
ssg76
g718
sg69
(lp725
S''
asbasbasbag62
(g78
g64
NtRp726
(dp727
g67
(dp728
sg76
g642
sg69
(lp729
g62
(g83
g64
NtRp730
(dp731
g67
(dp732
g87
g88
ssg76
g726
sg69
(lp733
g360
asbag62
(g83
g64
NtRp734
(dp735
g67
(dp736
g94
g95
ssg76
g726
sg69
(lp737
S':'
asbag62
(g83
g64
NtRp738
(dp739
g67
(dp740
sg76
g726
sg69
(lp741
g62
(g63
g64
NtRp742
(dp743
g67
(dp744
g75
I3
ssg76
g738
sg69
(lp745
S''
asbasbasbag62
(g78
g64
NtRp746
(dp747
g67
(dp748
sg76
g642
sg69
(lp749
g62
(g83
g64
NtRp750
(dp751
g67
(dp752
g87
g88
ssg76
g746
sg69
(lp753
g381
asbag62
(g83
g64
NtRp754
(dp755
g67
(dp756
g94
g95
ssg76
g746
sg69
(lp757
S':'
asbag62
(g83
g64
NtRp758
(dp759
g67
(dp760
sg76
g746
sg69
(lp761
g62
(g63
g64
NtRp762
(dp763
g67
(dp764
g75
I3
ssg76
g758
sg69
(lp765
S''
asbasbasbag62
(g78
g64
NtRp766
(dp767
g67
(dp768
sg76
g642
sg69
(lp769
g62
(g83
g64
NtRp770
(dp771
g67
(dp772
g87
g88
ssg76
g766
sg69
(lp773
g402
asbag62
(g83
g64
NtRp774
(dp775
g67
(dp776
g94
g95
ssg76
g766
sg69
(lp777
S':'
asbag62
(g83
g64
NtRp778
(dp779
g67
(dp780
sg76
g766
sg69
(lp781
g62
(g63
g64
NtRp782
(dp783
g67
(dp784
g75
I3
ssg76
g778
sg69
(lp785
S''
asbasbasbag62
(g78
g64
NtRp786
(dp787
g67
(dp788
sg76
g642
sg69
(lp789
g62
(g83
g64
NtRp790
(dp791
g67
(dp792
g87
g88
ssg76
g786
sg69
(lp793
g423
asbag62
(g83
g64
NtRp794
(dp795
g67
(dp796
g94
g95
ssg76
g786
sg69
(lp797
S':'
asbag62
(g83
g64
NtRp798
(dp799
g67
(dp800
sg76
g786
sg69
(lp801
g62
(g63
g64
NtRp802
(dp803
g67
(dp804
g75
I3
ssg76
g798
sg69
(lp805
S''
asbasbasbasbasbasbasbag62
(g78
g64
NtRp806
(dp807
g67
(dp808
sg76
g239
sg69
(lp809
g62
(g83
g64
NtRp810
(dp811
g67
(dp812
g87
g88
ssg76
g806
sg69
(lp813
S'session_id_admin'
p814
asbag62
(g83
g64
NtRp815
(dp816
g67
(dp817
g94
g95
ssg76
g806
sg69
(lp818
S':'
asbag62
(g83
g64
NtRp819
(dp820
g67
(dp821
sg76
g806
sg69
(lp822
g62
(g63
g64
NtRp823
(dp824
g67
(dp825
g75
I4
ssg76
g819
sg69
(lp826
g62
(g71
g64
NtRp827
(dp828
g67
(dp829
g75
I3
ssg76
Nsg69
(lp830
g62
(g78
g64
NtRp831
(dp832
g67
(dp833
sg76
g827
sg69
(lp834
g62
(g83
g64
NtRp835
(dp836
g67
(dp837
g87
g88
ssg76
g831
sg69
(lp838
g276
asbag62
(g83
g64
NtRp839
(dp840
g67
(dp841
g94
g95
ssg76
g831
sg69
(lp842
S':'
asbag62
(g83
g64
NtRp843
(dp844
g67
(dp845
sg76
g831
sg69
(lp846
g62
(g63
g64
NtRp847
(dp848
g67
(dp849
g75
I3
ssg76
g843
sg69
(lp850
S''
asbasbasbag62
(g78
g64
NtRp851
(dp852
g67
(dp853
sg76
g827
sg69
(lp854
g62
(g83
g64
NtRp855
(dp856
g67
(dp857
g87
g88
ssg76
g851
sg69
(lp858
g297
asbag62
(g83
g64
NtRp859
(dp860
g67
(dp861
g94
g95
ssg76
g851
sg69
(lp862
S':'
asbag62
(g83
g64
NtRp863
(dp864
g67
(dp865
sg76
g851
sg69
(lp866
g62
(g63
g64
NtRp867
(dp868
g67
(dp869
g75
I3
ssg76
g863
sg69
(lp870
S''
asbasbasbag62
(g78
g64
NtRp871
(dp872
g67
(dp873
sg76
g827
sg69
(lp874
g62
(g83
g64
NtRp875
(dp876
g67
(dp877
g87
g88
ssg76
g871
sg69
(lp878
g318
asbag62
(g83
g64
NtRp879
(dp880
g67
(dp881
g94
g95
ssg76
g871
sg69
(lp882
S':'
asbag62
(g83
g64
NtRp883
(dp884
g67
(dp885
sg76
g871
sg69
(lp886
g62
(g63
g64
NtRp887
(dp888
g67
(dp889
g75
I3
ssg76
g883
sg69
(lp890
S''
asbasbasbag62
(g78
g64
NtRp891
(dp892
g67
(dp893
sg76
g827
sg69
(lp894
g62
(g83
g64
NtRp895
(dp896
g67
(dp897
g87
g88
ssg76
g891
sg69
(lp898
g339
asbag62
(g83
g64
NtRp899
(dp900
g67
(dp901
g94
g95
ssg76
g891
sg69
(lp902
S':'
asbag62
(g83
g64
NtRp903
(dp904
g67
(dp905
sg76
g891
sg69
(lp906
g62
(g63
g64
NtRp907
(dp908
g67
(dp909
g75
I3
ssg76
g903
sg69
(lp910
S''
asbasbasbag62
(g78
g64
NtRp911
(dp912
g67
(dp913
sg76
g827
sg69
(lp914
g62
(g83
g64
NtRp915
(dp916
g67
(dp917
g87
g88
ssg76
g911
sg69
(lp918
g360
asbag62
(g83
g64
NtRp919
(dp920
g67
(dp921
g94
g95
ssg76
g911
sg69
(lp922
S':'
asbag62
(g83
g64
NtRp923
(dp924
g67
(dp925
sg76
g911
sg69
(lp926
g62
(g63
g64
NtRp927
(dp928
g67
(dp929
g75
I3
ssg76
g923
sg69
(lp930
S''
asbasbasbag62
(g78
g64
NtRp931
(dp932
g67
(dp933
sg76
g827
sg69
(lp934
g62
(g83
g64
NtRp935
(dp936
g67
(dp937
g87
g88
ssg76
g931
sg69
(lp938
g381
asbag62
(g83
g64
NtRp939
(dp940
g67
(dp941
g94
g95
ssg76
g931
sg69
(lp942
S':'
asbag62
(g83
g64
NtRp943
(dp944
g67
(dp945
sg76
g931
sg69
(lp946
g62
(g63
g64
NtRp947
(dp948
g67
(dp949
g75
I3
ssg76
g943
sg69
(lp950
S''
asbasbasbag62
(g78
g64
NtRp951
(dp952
g67
(dp953
sg76
g827
sg69
(lp954
g62
(g83
g64
NtRp955
(dp956
g67
(dp957
g87
g88
ssg76
g951
sg69
(lp958
g402
asbag62
(g83
g64
NtRp959
(dp960
g67
(dp961
g94
g95
ssg76
g951
sg69
(lp962
S':'
asbag62
(g83
g64
NtRp963
(dp964
g67
(dp965
sg76
g951
sg69
(lp966
g62
(g63
g64
NtRp967
(dp968
g67
(dp969
g75
I3
ssg76
g963
sg69
(lp970
S''
asbasbasbag62
(g78
g64
NtRp971
(dp972
g67
(dp973
sg76
g827
sg69
(lp974
g62
(g83
g64
NtRp975
(dp976
g67
(dp977
g87
g88
ssg76
g971
sg69
(lp978
g423
asbag62
(g83
g64
NtRp979
(dp980
g67
(dp981
g94
g95
ssg76
g971
sg69
(lp982
S':'
asbag62
(g83
g64
NtRp983
(dp984
g67
(dp985
sg76
g971
sg69
(lp986
g62
(g63
g64
NtRp987
(dp988
g67
(dp989
g75
I3
ssg76
g983
sg69
(lp990
S''
asbasbasbasbasbasbasbag62
(g78
g64
NtRp991
(dp992
g67
(dp993
sg76
g239
sg69
(lp994
g62
(g83
g64
NtRp995
(dp996
g67
(dp997
g87
g88
ssg76
g991
sg69
(lp998
S'session_id_fansubcheck'
p999
asbag62
(g83
g64
NtRp1000
(dp1001
g67
(dp1002
g94
g95
ssg76
g991
sg69
(lp1003
S':'
asbag62
(g83
g64
NtRp1004
(dp1005
g67
(dp1006
sg76
g991
sg69
(lp1007
g62
(g63
g64
NtRp1008
(dp1009
g67
(dp1010
g75
I4
ssg76
g1004
sg69
(lp1011
g62
(g71
g64
NtRp1012
(dp1013
g67
(dp1014
g75
I3
ssg76
Nsg69
(lp1015
g62
(g78
g64
NtRp1016
(dp1017
g67
(dp1018
sg76
g1012
sg69
(lp1019
g62
(g83
g64
NtRp1020
(dp1021
g67
(dp1022
g87
g88
ssg76
g1016
sg69
(lp1023
g276
asbag62
(g83
g64
NtRp1024
(dp1025
g67
(dp1026
g94
g95
ssg76
g1016
sg69
(lp1027
S':'
asbag62
(g83
g64
NtRp1028
(dp1029
g67
(dp1030
sg76
g1016
sg69
(lp1031
g62
(g63
g64
NtRp1032
(dp1033
g67
(dp1034
g75
I3
ssg76
g1028
sg69
(lp1035
S''
asbasbasbag62
(g78
g64
NtRp1036
(dp1037
g67
(dp1038
sg76
g1012
sg69
(lp1039
g62
(g83
g64
NtRp1040
(dp1041
g67
(dp1042
g87
g88
ssg76
g1036
sg69
(lp1043
g297
asbag62
(g83
g64
NtRp1044
(dp1045
g67
(dp1046
g94
g95
ssg76
g1036
sg69
(lp1047
S':'
asbag62
(g83
g64
NtRp1048
(dp1049
g67
(dp1050
sg76
g1036
sg69
(lp1051
g62
(g63
g64
NtRp1052
(dp1053
g67
(dp1054
g75
I3
ssg76
g1048
sg69
(lp1055
S''
asbasbasbag62
(g78
g64
NtRp1056
(dp1057
g67
(dp1058
sg76
g1012
sg69
(lp1059
g62
(g83
g64
NtRp1060
(dp1061
g67
(dp1062
g87
g88
ssg76
g1056
sg69
(lp1063
g318
asbag62
(g83
g64
NtRp1064
(dp1065
g67
(dp1066
g94
g95
ssg76
g1056
sg69
(lp1067
S':'
asbag62
(g83
g64
NtRp1068
(dp1069
g67
(dp1070
sg76
g1056
sg69
(lp1071
g62
(g63
g64
NtRp1072
(dp1073
g67
(dp1074
g75
I3
ssg76
g1068
sg69
(lp1075
S''
asbasbasbag62
(g78
g64
NtRp1076
(dp1077
g67
(dp1078
sg76
g1012
sg69
(lp1079
g62
(g83
g64
NtRp1080
(dp1081
g67
(dp1082
g87
g88
ssg76
g1076
sg69
(lp1083
g339
asbag62
(g83
g64
NtRp1084
(dp1085
g67
(dp1086
g94
g95
ssg76
g1076
sg69
(lp1087
S':'
asbag62
(g83
g64
NtRp1088
(dp1089
g67
(dp1090
sg76
g1076
sg69
(lp1091
g62
(g63
g64
NtRp1092
(dp1093
g67
(dp1094
g75
I3
ssg76
g1088
sg69
(lp1095
S''
asbasbasbag62
(g78
g64
NtRp1096
(dp1097
g67
(dp1098
sg76
g1012
sg69
(lp1099
g62
(g83
g64
NtRp1100
(dp1101
g67
(dp1102
g87
g88
ssg76
g1096
sg69
(lp1103
g360
asbag62
(g83
g64
NtRp1104
(dp1105
g67
(dp1106
g94
g95
ssg76
g1096
sg69
(lp1107
S':'
asbag62
(g83
g64
NtRp1108
(dp1109
g67
(dp1110
sg76
g1096
sg69
(lp1111
g62
(g63
g64
NtRp1112
(dp1113
g67
(dp1114
g75
I3
ssg76
g1108
sg69
(lp1115
S''
asbasbasbag62
(g78
g64
NtRp1116
(dp1117
g67
(dp1118
sg76
g1012
sg69
(lp1119
g62
(g83
g64
NtRp1120
(dp1121
g67
(dp1122
g87
g88
ssg76
g1116
sg69
(lp1123
g381
asbag62
(g83
g64
NtRp1124
(dp1125
g67
(dp1126
g94
g95
ssg76
g1116
sg69
(lp1127
S':'
asbag62
(g83
g64
NtRp1128
(dp1129
g67
(dp1130
sg76
g1116
sg69
(lp1131
g62
(g63
g64
NtRp1132
(dp1133
g67
(dp1134
g75
I3
ssg76
g1128
sg69
(lp1135
S''
asbasbasbag62
(g78
g64
NtRp1136
(dp1137
g67
(dp1138
sg76
g1012
sg69
(lp1139
g62
(g83
g64
NtRp1140
(dp1141
g67
(dp1142
g87
g88
ssg76
g1136
sg69
(lp1143
g402
asbag62
(g83
g64
NtRp1144
(dp1145
g67
(dp1146
g94
g95
ssg76
g1136
sg69
(lp1147
S':'
asbag62
(g83
g64
NtRp1148
(dp1149
g67
(dp1150
sg76
g1136
sg69
(lp1151
g62
(g63
g64
NtRp1152
(dp1153
g67
(dp1154
g75
I3
ssg76
g1148
sg69
(lp1155
S''
asbasbasbag62
(g78
g64
NtRp1156
(dp1157
g67
(dp1158
sg76
g1012
sg69
(lp1159
g62
(g83
g64
NtRp1160
(dp1161
g67
(dp1162
g87
g88
ssg76
g1156
sg69
(lp1163
g423
asbag62
(g83
g64
NtRp1164
(dp1165
g67
(dp1166
g94
g95
ssg76
g1156
sg69
(lp1167
S':'
asbag62
(g83
g64
NtRp1168
(dp1169
g67
(dp1170
sg76
g1156
sg69
(lp1171
g62
(g63
g64
NtRp1172
(dp1173
g67
(dp1174
g75
I3
ssg76
g1168
sg69
(lp1175
S''
asbasbasbasbasbasbasbasbasbasbasbag62
(g78
g64
NtRp1176
(dp1177
g67
(dp1178
sg76
g72
sg69
(lp1179
g62
(g83
g64
NtRp1180
(dp1181
g67
(dp1182
g87
g88
ssg76
g1176
sg69
(lp1183
S'env'
p1184
asbag62
(g83
g64
NtRp1185
(dp1186
g67
(dp1187
g94
g95
ssg76
g1176
sg69
(lp1188
S':'
asbag62
(g83
g64
NtRp1189
(dp1190
g67
(dp1191
sg76
g1176
sg69
(lp1192
g62
(g63
g64
NtRp1193
(dp1194
g67
(dp1195
g75
I5
ssg76
g1189
sg69
(lp1196
g62
(g71
g64
NtRp1197
(dp1198
g67
(dp1199
g75
I4
ssg76
Nsg69
(lp1200
g62
(g78
g64
NtRp1201
(dp1202
g67
(dp1203
sg76
g1197
sg69
(lp1204
g62
(g83
g64
NtRp1205
(dp1206
g67
(dp1207
g87
g88
ssg76
g1201
sg69
(lp1208
S'app_folders'
p1209
asbag62
(g83
g64
NtRp1210
(dp1211
g67
(dp1212
g94
g95
ssg76
g1201
sg69
(lp1213
S':'
asbag62
(g83
g64
NtRp1214
(dp1215
g67
(dp1216
sg76
g1201
sg69
(lp1217
g62
(g63
g64
NtRp1218
(dp1219
g67
(dp1220
g75
I4
ssg76
g1214
sg69
(lp1221
S"set(['/windows/Users/Thomas/Dropbox/appz/2011/dotcloud_web2py/applications/admin/', '/windows/Users/Thomas/Dropbox/appz/2011/dotcloud_web2py/applications/fansubcheck/'])"
p1222
asbasbasbag62
(g78
g64
NtRp1223
(dp1224
g67
(dp1225
sg76
g1197
sg69
(lp1226
g62
(g83
g64
NtRp1227
(dp1228
g67
(dp1229
g87
g88
ssg76
g1223
sg69
(lp1230
S'applications_parent'
p1231
asbag62
(g83
g64
NtRp1232
(dp1233
g67
(dp1234
g94
g95
ssg76
g1223
sg69
(lp1235
S':'
asbag62
(g83
g64
NtRp1236
(dp1237
g67
(dp1238
sg76
g1223
sg69
(lp1239
g62
(g63
g64
NtRp1240
(dp1241
g67
(dp1242
g75
I4
ssg76
g1236
sg69
(lp1243
S'/windows/Users/Thomas/Dropbox/appz/2011/dotcloud_web2py'
p1244
asbasbasbag62
(g78
g64
NtRp1245
(dp1246
g67
(dp1247
sg76
g1197
sg69
(lp1248
g62
(g83
g64
NtRp1249
(dp1250
g67
(dp1251
g87
g88
ssg76
g1245
sg69
(lp1252
S'cmd_args'
p1253
asbag62
(g83
g64
NtRp1254
(dp1255
g67
(dp1256
g94
g95
ssg76
g1245
sg69
(lp1257
S':'
asbag62
(g83
g64
NtRp1258
(dp1259
g67
(dp1260
sg76
g1245
sg69
(lp1261
g62
(g63
g64
NtRp1262
(dp1263
g67
(dp1264
g75
I4
ssg76
g1258
sg69
(lp1265
g62
(g71
g64
NtRp1266
(dp1267
g67
(dp1268
g75
I3
ssg76
Nsg69
(lp1269
sbasbasbasbag62
(g78
g64
NtRp1270
(dp1271
g67
(dp1272
sg76
g1197
sg69
(lp1273
g62
(g83
g64
NtRp1274
(dp1275
g67
(dp1276
g87
g88
ssg76
g1270
sg69
(lp1277
S'cmd_options'
p1278
asbag62
(g83
g64
NtRp1279
(dp1280
g67
(dp1281
g94
g95
ssg76
g1270
sg69
(lp1282
S':'
asbag62
(g83
g64
NtRp1283
(dp1284
g67
(dp1285
sg76
g1270
sg69
(lp1286
g62
(g63
g64
NtRp1287
(dp1288
g67
(dp1289
g75
I4
ssg76
g1283
sg69
(lp1290
S"<Values at 0x3115488: {'verbose': False, 'ip': '127.0.0.1', 'shutdown_timeout': 5, 'taskbar': False, 'nocron': False, 'pid_filename': 'httpserver.pid', 'maxthreads': None, 'softcron': False, 'server_name': 'VPCF22AJ', 'bpython': False, 'nogui': False, 'port': 8000, 'extcron': False, 'debuglevel': 30, 'test': None, 'folder': '/windows/Users/Thomas/Dropbox/appz/2011/dotcloud_web2py', 'config': '', 'import_models': False, 'winservice': '', 'shell': None, 'run': '', 'log_filename': 'httpserver.log', 'args': [''], 'socket_timeout': 1, 'ssl_ca_certificate': None, 'scheduler': None, 'profiler_filename': None, 'ssl_private_key': '', 'password': 'admin', 'request_queue_size': 5, 'ssl_certificate': '', 'cronjob': False, 'numthreads': None, 'quiet': False, 'interfaces': None, 'minthreads': None, 'timeout': 10, 'plain': False, 'nobanner': False}>"
p1291
asbasbasbag62
(g78
g64
NtRp1292
(dp1293
g67
(dp1294
sg76
g1197
sg69
(lp1295
g62
(g83
g64
NtRp1296
(dp1297
g67
(dp1298
g87
g88
ssg76
g1292
sg69
(lp1299
S'db_sessions'
p1300
asbag62
(g83
g64
NtRp1301
(dp1302
g67
(dp1303
g94
g95
ssg76
g1292
sg69
(lp1304
S':'
asbag62
(g83
g64
NtRp1305
(dp1306
g67
(dp1307
sg76
g1292
sg69
(lp1308
g62
(g63
g64
NtRp1309
(dp1310
g67
(dp1311
g75
I4
ssg76
g1305
sg69
(lp1312
S'set([])'
p1313
asbasbasbag62
(g78
g64
NtRp1314
(dp1315
g67
(dp1316
sg76
g1197
sg69
(lp1317
g62
(g83
g64
NtRp1318
(dp1319
g67
(dp1320
g87
g88
ssg76
g1314
sg69
(lp1321
S'debugging'
p1322
asbag62
(g83
g64
NtRp1323
(dp1324
g67
(dp1325
g94
g95
ssg76
g1314
sg69
(lp1326
S':'
asbag62
(g83
g64
NtRp1327
(dp1328
g67
(dp1329
sg76
g1314
sg69
(lp1330
g62
(g63
g64
NtRp1331
(dp1332
g67
(dp1333
g75
I4
ssg76
g1327
sg69
(lp1334
g105
asbasbasbag62
(g78
g64
NtRp1335
(dp1336
g67
(dp1337
sg76
g1197
sg69
(lp1338
g62
(g83
g64
NtRp1339
(dp1340
g67
(dp1341
g87
g88
ssg76
g1335
sg69
(lp1342
S'gluon_parent'
p1343
asbag62
(g83
g64
NtRp1344
(dp1345
g67
(dp1346
g94
g95
ssg76
g1335
sg69
(lp1347
S':'
asbag62
(g83
g64
NtRp1348
(dp1349
g67
(dp1350
sg76
g1335
sg69
(lp1351
g62
(g63
g64
NtRp1352
(dp1353
g67
(dp1354
g75
I4
ssg76
g1348
sg69
(lp1355
S'/windows/Users/Thomas/Dropbox/appz/2011/dotcloud_web2py'
p1356
asbasbasbag62
(g78
g64
NtRp1357
(dp1358
g67
(dp1359
sg76
g1197
sg69
(lp1360
g62
(g83
g64
NtRp1361
(dp1362
g67
(dp1363
g87
g88
ssg76
g1357
sg69
(lp1364
S'http_accept'
p1365
asbag62
(g83
g64
NtRp1366
(dp1367
g67
(dp1368
g94
g95
ssg76
g1357
sg69
(lp1369
S':'
asbag62
(g83
g64
NtRp1370
(dp1371
g67
(dp1372
sg76
g1357
sg69
(lp1373
g62
(g63
g64
NtRp1374
(dp1375
g67
(dp1376
g75
I4
ssg76
g1370
sg69
(lp1377
S'text/html,application/xhtml+xml,application/xml;q=0.9,*/*;q=0.8'
p1378
asbasbasbag62
(g78
g64
NtRp1379
(dp1380
g67
(dp1381
sg76
g1197
sg69
(lp1382
g62
(g83
g64
NtRp1383
(dp1384
g67
(dp1385
g87
g88
ssg76
g1379
sg69
(lp1386
S'http_accept_charset'
p1387
asbag62
(g83
g64
NtRp1388
(dp1389
g67
(dp1390
g94
g95
ssg76
g1379
sg69
(lp1391
S':'
asbag62
(g83
g64
NtRp1392
(dp1393
g67
(dp1394
sg76
g1379
sg69
(lp1395
g62
(g63
g64
NtRp1396
(dp1397
g67
(dp1398
g75
I4
ssg76
g1392
sg69
(lp1399
S'ISO-8859-1,utf-8;q=0.7,*;q=0.3'
p1400
asbasbasbag62
(g78
g64
NtRp1401
(dp1402
g67
(dp1403
sg76
g1197
sg69
(lp1404
g62
(g83
g64
NtRp1405
(dp1406
g67
(dp1407
g87
g88
ssg76
g1401
sg69
(lp1408
S'http_accept_encoding'
p1409
asbag62
(g83
g64
NtRp1410
(dp1411
g67
(dp1412
g94
g95
ssg76
g1401
sg69
(lp1413
S':'
asbag62
(g83
g64
NtRp1414
(dp1415
g67
(dp1416
sg76
g1401
sg69
(lp1417
g62
(g63
g64
NtRp1418
(dp1419
g67
(dp1420
g75
I4
ssg76
g1414
sg69
(lp1421
S'gzip,deflate,sdch'
p1422
asbasbasbag62
(g78
g64
NtRp1423
(dp1424
g67
(dp1425
sg76
g1197
sg69
(lp1426
g62
(g83
g64
NtRp1427
(dp1428
g67
(dp1429
g87
g88
ssg76
g1423
sg69
(lp1430
S'http_accept_language'
p1431
asbag62
(g83
g64
NtRp1432
(dp1433
g67
(dp1434
g94
g95
ssg76
g1423
sg69
(lp1435
S':'
asbag62
(g83
g64
NtRp1436
(dp1437
g67
(dp1438
sg76
g1423
sg69
(lp1439
g62
(g63
g64
NtRp1440
(dp1441
g67
(dp1442
g75
I4
ssg76
g1436
sg69
(lp1443
S'fr,en-GB;q=0.8,en;q=0.6'
p1444
asbasbasbag62
(g78
g64
NtRp1445
(dp1446
g67
(dp1447
sg76
g1197
sg69
(lp1448
g62
(g83
g64
NtRp1449
(dp1450
g67
(dp1451
g87
g88
ssg76
g1445
sg69
(lp1452
S'http_connection'
p1453
asbag62
(g83
g64
NtRp1454
(dp1455
g67
(dp1456
g94
g95
ssg76
g1445
sg69
(lp1457
S':'
asbag62
(g83
g64
NtRp1458
(dp1459
g67
(dp1460
sg76
g1445
sg69
(lp1461
g62
(g63
g64
NtRp1462
(dp1463
g67
(dp1464
g75
I4
ssg76
g1458
sg69
(lp1465
S'keep-alive'
p1466
asbasbasbag62
(g78
g64
NtRp1467
(dp1468
g67
(dp1469
sg76
g1197
sg69
(lp1470
g62
(g83
g64
NtRp1471
(dp1472
g67
(dp1473
g87
g88
ssg76
g1467
sg69
(lp1474
S'http_cookie'
p1475
asbag62
(g83
g64
NtRp1476
(dp1477
g67
(dp1478
g94
g95
ssg76
g1467
sg69
(lp1479
S':'
asbag62
(g83
g64
NtRp1480
(dp1481
g67
(dp1482
sg76
g1467
sg69
(lp1483
g62
(g63
g64
NtRp1484
(dp1485
g67
(dp1486
g75
I4
ssg76
g1480
sg69
(lp1487
S'ext-stateComments=o%3Acollapsed%3Db%253A0%5Ecolumns%3Da%253Ao%25253Aid%25253Ds%2525253Ah1%25255Ewidth%25253Dn%2525253A92%255Eo%25253Aid%25253Ds%2525253Ah2%255Eo%25253Aid%25253Ds%2525253Ah3; ext-stateSubs=o%3Acollapsed%3Db%253A0%5Ecolumns%3Da%253Ao%25253Aid%25253Ds%2525253Ah1%255Eo%25253Aid%25253Ds%2525253Ah2%255Eo%25253Aid%25253Ds%2525253Ah3%255Eo%25253Aid%25253Ds%2525253Ah4%5Esort%3Do%253Aproperty%253Ds%25253Astart_time%255Edirection%253Ds%25253AASC%5Efilters%3Do%253A; session_id_admin=127.0.0.1-a814ede9-259b-45cd-9512-b8b8e430711c; ext-stateQCList=o%3Acollapsed%3Db%253A0%5Ecolumns%3Da%253Ao%25253Aid%25253Ds%2525253Ah1%255Eo%25253Aid%25253Ds%2525253Ah2%255Eo%25253Aid%25253Ds%2525253Ah3%255Eo%25253Aid%25253Ds%2525253Ah4%255Eo%25253Aid%25253Ds%2525253Ah5%255Eo%25253Aid%25253Ds%2525253Ah6%255Eo%25253Aid%25253Ds%2525253Ah7%5Esort%3Do%253Aproperty%253Ds%25253Acomments_nb%255Edirection%253Ds%25253ADESC%5Efilters%3Do%253A; session_id_fansubcheck=127.0.0.1-bf3f1b47-a07f-4ce2-8e72-3ba2b00dab7a'
p1488
asbasbasbag62
(g78
g64
NtRp1489
(dp1490
g67
(dp1491
sg76
g1197
sg69
(lp1492
g62
(g83
g64
NtRp1493
(dp1494
g67
(dp1495
g87
g88
ssg76
g1489
sg69
(lp1496
S'http_host'
p1497
asbag62
(g83
g64
NtRp1498
(dp1499
g67
(dp1500
g94
g95
ssg76
g1489
sg69
(lp1501
S':'
asbag62
(g83
g64
NtRp1502
(dp1503
g67
(dp1504
sg76
g1489
sg69
(lp1505
g62
(g63
g64
NtRp1506
(dp1507
g67
(dp1508
g75
I4
ssg76
g1502
sg69
(lp1509
S'127.0.0.1:8000'
p1510
asbasbasbag62
(g78
g64
NtRp1511
(dp1512
g67
(dp1513
sg76
g1197
sg69
(lp1514
g62
(g83
g64
NtRp1515
(dp1516
g67
(dp1517
g87
g88
ssg76
g1511
sg69
(lp1518
S'http_referer'
p1519
asbag62
(g83
g64
NtRp1520
(dp1521
g67
(dp1522
g94
g95
ssg76
g1511
sg69
(lp1523
S':'
asbag62
(g83
g64
NtRp1524
(dp1525
g67
(dp1526
sg76
g1511
sg69
(lp1527
g62
(g63
g64
NtRp1528
(dp1529
g67
(dp1530
g75
I4
ssg76
g1524
sg69
(lp1531
S'http://127.0.0.1:8000/home'
p1532
asbasbasbag62
(g78
g64
NtRp1533
(dp1534
g67
(dp1535
sg76
g1197
sg69
(lp1536
g62
(g83
g64
NtRp1537
(dp1538
g67
(dp1539
g87
g88
ssg76
g1533
sg69
(lp1540
S'http_user_agent'
p1541
asbag62
(g83
g64
NtRp1542
(dp1543
g67
(dp1544
g94
g95
ssg76
g1533
sg69
(lp1545
S':'
asbag62
(g83
g64
NtRp1546
(dp1547
g67
(dp1548
sg76
g1533
sg69
(lp1549
g62
(g63
g64
NtRp1550
(dp1551
g67
(dp1552
g75
I4
ssg76
g1546
sg69
(lp1553
S'Mozilla/5.0 (X11; Linux x86_64) AppleWebKit/535.7 (KHTML, like Gecko) Chrome/16.0.912.63 Safari/535.7'
p1554
asbasbasbag62
(g78
g64
NtRp1555
(dp1556
g67
(dp1557
sg76
g1197
sg69
(lp1558
g62
(g83
g64
NtRp1559
(dp1560
g67
(dp1561
g87
g88
ssg76
g1555
sg69
(lp1562
S'is_jython'
p1563
asbag62
(g83
g64
NtRp1564
(dp1565
g67
(dp1566
g94
g95
ssg76
g1555
sg69
(lp1567
S':'
asbag62
(g83
g64
NtRp1568
(dp1569
g67
(dp1570
sg76
g1555
sg69
(lp1571
g62
(g63
g64
NtRp1572
(dp1573
g67
(dp1574
g75
I4
ssg76
g1568
sg69
(lp1575
g105
asbasbasbag62
(g78
g64
NtRp1576
(dp1577
g67
(dp1578
sg76
g1197
sg69
(lp1579
g62
(g83
g64
NtRp1580
(dp1581
g67
(dp1582
g87
g88
ssg76
g1576
sg69
(lp1583
S'is_pypy'
p1584
asbag62
(g83
g64
NtRp1585
(dp1586
g67
(dp1587
g94
g95
ssg76
g1576
sg69
(lp1588
S':'
asbag62
(g83
g64
NtRp1589
(dp1590
g67
(dp1591
sg76
g1576
sg69
(lp1592
g62
(g63
g64
NtRp1593
(dp1594
g67
(dp1595
g75
I4
ssg76
g1589
sg69
(lp1596
g105
asbasbasbag62
(g78
g64
NtRp1597
(dp1598
g67
(dp1599
sg76
g1197
sg69
(lp1600
g62
(g83
g64
NtRp1601
(dp1602
g67
(dp1603
g87
g88
ssg76
g1597
sg69
(lp1604
S'path_info'
p1605
asbag62
(g83
g64
NtRp1606
(dp1607
g67
(dp1608
g94
g95
ssg76
g1597
sg69
(lp1609
S':'
asbag62
(g83
g64
NtRp1610
(dp1611
g67
(dp1612
sg76
g1597
sg69
(lp1613
g62
(g63
g64
NtRp1614
(dp1615
g67
(dp1616
g75
I4
ssg76
g1610
sg69
(lp1617
S'/fansubcheck/default/add_qc'
p1618
asbasbasbag62
(g78
g64
NtRp1619
(dp1620
g67
(dp1621
sg76
g1197
sg69
(lp1622
g62
(g83
g64
NtRp1623
(dp1624
g67
(dp1625
g87
g88
ssg76
g1619
sg69
(lp1626
S'query_string'
p1627
asbag62
(g83
g64
NtRp1628
(dp1629
g67
(dp1630
g94
g95
ssg76
g1619
sg69
(lp1631
S':'
asbag62
(g83
g64
NtRp1632
(dp1633
g67
(dp1634
sg76
g1619
sg69
(lp1635
g62
(g63
g64
NtRp1636
(dp1637
g67
(dp1638
g75
I4
ssg76
g1632
sg69
(lp1639
S''
asbasbasbag62
(g78
g64
NtRp1640
(dp1641
g67
(dp1642
sg76
g1197
sg69
(lp1643
g62
(g83
g64
NtRp1644
(dp1645
g67
(dp1646
g87
g88
ssg76
g1640
sg69
(lp1647
S'remote_addr'
p1648
asbag62
(g83
g64
NtRp1649
(dp1650
g67
(dp1651
g94
g95
ssg76
g1640
sg69
(lp1652
S':'
asbag62
(g83
g64
NtRp1653
(dp1654
g67
(dp1655
sg76
g1640
sg69
(lp1656
g62
(g63
g64
NtRp1657
(dp1658
g67
(dp1659
g75
I4
ssg76
g1653
sg69
(lp1660
g195
asbasbasbag62
(g78
g64
NtRp1661
(dp1662
g67
(dp1663
sg76
g1197
sg69
(lp1664
g62
(g83
g64
NtRp1665
(dp1666
g67
(dp1667
g87
g88
ssg76
g1661
sg69
(lp1668
S'remote_port'
p1669
asbag62
(g83
g64
NtRp1670
(dp1671
g67
(dp1672
g94
g95
ssg76
g1661
sg69
(lp1673
S':'
asbag62
(g83
g64
NtRp1674
(dp1675
g67
(dp1676
sg76
g1661
sg69
(lp1677
g62
(g63
g64
NtRp1678
(dp1679
g67
(dp1680
g75
I4
ssg76
g1674
sg69
(lp1681
S'54820'
p1682
asbasbasbag62
(g78
g64
NtRp1683
(dp1684
g67
(dp1685
sg76
g1197
sg69
(lp1686
g62
(g83
g64
NtRp1687
(dp1688
g67
(dp1689
g87
g88
ssg76
g1683
sg69
(lp1690
S'request_method'
p1691
asbag62
(g83
g64
NtRp1692
(dp1693
g67
(dp1694
g94
g95
ssg76
g1683
sg69
(lp1695
S':'
asbag62
(g83
g64
NtRp1696
(dp1697
g67
(dp1698
sg76
g1683
sg69
(lp1699
g62
(g63
g64
NtRp1700
(dp1701
g67
(dp1702
g75
I4
ssg76
g1696
sg69
(lp1703
S'GET'
p1704
asbasbasbag62
(g78
g64
NtRp1705
(dp1706
g67
(dp1707
sg76
g1197
sg69
(lp1708
g62
(g83
g64
NtRp1709
(dp1710
g67
(dp1711
g87
g88
ssg76
g1705
sg69
(lp1712
S'request_uri'
p1713
asbag62
(g83
g64
NtRp1714
(dp1715
g67
(dp1716
g94
g95
ssg76
g1705
sg69
(lp1717
S':'
asbag62
(g83
g64
NtRp1718
(dp1719
g67
(dp1720
sg76
g1705
sg69
(lp1721
g62
(g63
g64
NtRp1722
(dp1723
g67
(dp1724
g75
I4
ssg76
g1718
sg69
(lp1725
g1618
asbasbasbag62
(g78
g64
NtRp1726
(dp1727
g67
(dp1728
sg76
g1197
sg69
(lp1729
g62
(g83
g64
NtRp1730
(dp1731
g67
(dp1732
g87
g88
ssg76
g1726
sg69
(lp1733
S'script_name'
p1734
asbag62
(g83
g64
NtRp1735
(dp1736
g67
(dp1737
g94
g95
ssg76
g1726
sg69
(lp1738
S':'
asbag62
(g83
g64
NtRp1739
(dp1740
g67
(dp1741
sg76
g1726
sg69
(lp1742
g62
(g63
g64
NtRp1743
(dp1744
g67
(dp1745
g75
I4
ssg76
g1739
sg69
(lp1746
S''
asbasbasbag62
(g78
g64
NtRp1747
(dp1748
g67
(dp1749
sg76
g1197
sg69
(lp1750
g62
(g83
g64
NtRp1751
(dp1752
g67
(dp1753
g87
g88
ssg76
g1747
sg69
(lp1754
S'server_name'
p1755
asbag62
(g83
g64
NtRp1756
(dp1757
g67
(dp1758
g94
g95
ssg76
g1747
sg69
(lp1759
S':'
asbag62
(g83
g64
NtRp1760
(dp1761
g67
(dp1762
sg76
g1747
sg69
(lp1763
g62
(g63
g64
NtRp1764
(dp1765
g67
(dp1766
g75
I4
ssg76
g1760
sg69
(lp1767
S'VPCF22AJ'
p1768
asbasbasbag62
(g78
g64
NtRp1769
(dp1770
g67
(dp1771
sg76
g1197
sg69
(lp1772
g62
(g83
g64
NtRp1773
(dp1774
g67
(dp1775
g87
g88
ssg76
g1769
sg69
(lp1776
S'server_port'
p1777
asbag62
(g83
g64
NtRp1778
(dp1779
g67
(dp1780
g94
g95
ssg76
g1769
sg69
(lp1781
S':'
asbag62
(g83
g64
NtRp1782
(dp1783
g67
(dp1784
sg76
g1769
sg69
(lp1785
g62
(g63
g64
NtRp1786
(dp1787
g67
(dp1788
g75
I4
ssg76
g1782
sg69
(lp1789
S'8000'
p1790
asbasbasbag62
(g78
g64
NtRp1791
(dp1792
g67
(dp1793
sg76
g1197
sg69
(lp1794
g62
(g83
g64
NtRp1795
(dp1796
g67
(dp1797
g87
g88
ssg76
g1791
sg69
(lp1798
S'server_protocol'
p1799
asbag62
(g83
g64
NtRp1800
(dp1801
g67
(dp1802
g94
g95
ssg76
g1791
sg69
(lp1803
S':'
asbag62
(g83
g64
NtRp1804
(dp1805
g67
(dp1806
sg76
g1791
sg69
(lp1807
g62
(g63
g64
NtRp1808
(dp1809
g67
(dp1810
g75
I4
ssg76
g1804
sg69
(lp1811
S'HTTP/1.1'
p1812
asbasbasbag62
(g78
g64
NtRp1813
(dp1814
g67
(dp1815
sg76
g1197
sg69
(lp1816
g62
(g83
g64
NtRp1817
(dp1818
g67
(dp1819
g87
g88
ssg76
g1813
sg69
(lp1820
S'server_software'
p1821
asbag62
(g83
g64
NtRp1822
(dp1823
g67
(dp1824
g94
g95
ssg76
g1813
sg69
(lp1825
S':'
asbag62
(g83
g64
NtRp1826
(dp1827
g67
(dp1828
sg76
g1813
sg69
(lp1829
g62
(g63
g64
NtRp1830
(dp1831
g67
(dp1832
g75
I4
ssg76
g1826
sg69
(lp1833
S'Rocket 1.2.4'
p1834
asbasbasbag62
(g78
g64
NtRp1835
(dp1836
g67
(dp1837
sg76
g1197
sg69
(lp1838
g62
(g83
g64
NtRp1839
(dp1840
g67
(dp1841
g87
g88
ssg76
g1835
sg69
(lp1842
S'web2py_crontype'
p1843
asbag62
(g83
g64
NtRp1844
(dp1845
g67
(dp1846
g94
g95
ssg76
g1835
sg69
(lp1847
S':'
asbag62
(g83
g64
NtRp1848
(dp1849
g67
(dp1850
sg76
g1835
sg69
(lp1851
g62
(g63
g64
NtRp1852
(dp1853
g67
(dp1854
g75
I4
ssg76
g1848
sg69
(lp1855
S'hard'
p1856
asbasbasbag62
(g78
g64
NtRp1857
(dp1858
g67
(dp1859
sg76
g1197
sg69
(lp1860
g62
(g83
g64
NtRp1861
(dp1862
g67
(dp1863
g87
g88
ssg76
g1857
sg69
(lp1864
S'web2py_original_uri'
p1865
asbag62
(g83
g64
NtRp1866
(dp1867
g67
(dp1868
g94
g95
ssg76
g1857
sg69
(lp1869
S':'
asbag62
(g83
g64
NtRp1870
(dp1871
g67
(dp1872
sg76
g1857
sg69
(lp1873
g62
(g63
g64
NtRp1874
(dp1875
g67
(dp1876
g75
I4
ssg76
g1870
sg69
(lp1877
S'/add_qc'
p1878
asbasbasbag62
(g78
g64
NtRp1879
(dp1880
g67
(dp1881
sg76
g1197
sg69
(lp1882
g62
(g83
g64
NtRp1883
(dp1884
g67
(dp1885
g87
g88
ssg76
g1879
sg69
(lp1886
S'web2py_path'
p1887
asbag62
(g83
g64
NtRp1888
(dp1889
g67
(dp1890
g94
g95
ssg76
g1879
sg69
(lp1891
S':'
asbag62
(g83
g64
NtRp1892
(dp1893
g67
(dp1894
sg76
g1879
sg69
(lp1895
g62
(g63
g64
NtRp1896
(dp1897
g67
(dp1898
g75
I4
ssg76
g1892
sg69
(lp1899
g1244
asbasbasbag62
(g78
g64
NtRp1900
(dp1901
g67
(dp1902
sg76
g1197
sg69
(lp1903
g62
(g83
g64
NtRp1904
(dp1905
g67
(dp1906
g87
g88
ssg76
g1900
sg69
(lp1907
S'web2py_version'
p1908
asbag62
(g83
g64
NtRp1909
(dp1910
g67
(dp1911
g94
g95
ssg76
g1900
sg69
(lp1912
S':'
asbag62
(g83
g64
NtRp1913
(dp1914
g67
(dp1915
sg76
g1900
sg69
(lp1916
g62
(g63
g64
NtRp1917
(dp1918
g67
(dp1919
g75
I4
ssg76
g1913
sg69
(lp1920
g62
(g71
g64
NtRp1921
(dp1922
g67
(dp1923
g75
I3
ssg76
Nsg69
(lp1924
g62
(g78
g64
NtRp1925
(dp1926
g67
(dp1927
sg76
g1921
sg69
(lp1928
g62
(g83
g64
NtRp1929
(dp1930
g67
(dp1931
sg76
g1925
sg69
(lp1932
g62
(g63
g64
NtRp1933
(dp1934
g67
(dp1935
g75
I3
ssg76
g1929
sg69
(lp1936
S'1'
asbasbasbag62
(g78
g64
NtRp1937
(dp1938
g67
(dp1939
sg76
g1921
sg69
(lp1940
g62
(g83
g64
NtRp1941
(dp1942
g67
(dp1943
sg76
g1937
sg69
(lp1944
g62
(g63
g64
NtRp1945
(dp1946
g67
(dp1947
g75
I3
ssg76
g1941
sg69
(lp1948
S'99'
p1949
asbasbasbag62
(g78
g64
NtRp1950
(dp1951
g67
(dp1952
sg76
g1921
sg69
(lp1953
g62
(g83
g64
NtRp1954
(dp1955
g67
(dp1956
sg76
g1950
sg69
(lp1957
g62
(g63
g64
NtRp1958
(dp1959
g67
(dp1960
g75
I3
ssg76
g1954
sg69
(lp1961
S'4'
asbasbasbag62
(g78
g64
NtRp1962
(dp1963
g67
(dp1964
sg76
g1921
sg69
(lp1965
g62
(g83
g64
NtRp1966
(dp1967
g67
(dp1968
sg76
g1962
sg69
(lp1969
g62
(g63
g64
NtRp1970
(dp1971
g67
(dp1972
g75
I3
ssg76
g1966
sg69
(lp1973
S'datetime.datetime(2011, 12, 14, 14, 46, 14)'
p1974
asbasbasbag62
(g78
g64
NtRp1975
(dp1976
g67
(dp1977
sg76
g1921
sg69
(lp1978
g62
(g83
g64
NtRp1979
(dp1980
g67
(dp1981
sg76
g1975
sg69
(lp1982
g62
(g63
g64
NtRp1983
(dp1984
g67
(dp1985
g75
I3
ssg76
g1979
sg69
(lp1986
S'stable'
p1987
asbasbasbasbasbasbasbag62
(g78
g64
NtRp1988
(dp1989
g67
(dp1990
sg76
g1197
sg69
(lp1991
g62
(g83
g64
NtRp1992
(dp1993
g67
(dp1994
g87
g88
ssg76
g1988
sg69
(lp1995
S'wsgi_errors'
p1996
asbag62
(g83
g64
NtRp1997
(dp1998
g67
(dp1999
g94
g95
ssg76
g1988
sg69
(lp2000
S':'
asbag62
(g83
g64
NtRp2001
(dp2002
g67
(dp2003
sg76
g1988
sg69
(lp2004
g62
(g63
g64
NtRp2005
(dp2006
g67
(dp2007
g75
I4
ssg76
g2001
sg69
(lp2008
S"<open file '<stderr>', mode 'w' at 0x7ff14f507270>"
p2009
asbasbasbag62
(g78
g64
NtRp2010
(dp2011
g67
(dp2012
sg76
g1197
sg69
(lp2013
g62
(g83
g64
NtRp2014
(dp2015
g67
(dp2016
g87
g88
ssg76
g2010
sg69
(lp2017
S'wsgi_file_wrapper'
p2018
asbag62
(g83
g64
NtRp2019
(dp2020
g67
(dp2021
g94
g95
ssg76
g2010
sg69
(lp2022
S':'
asbag62
(g83
g64
NtRp2023
(dp2024
g67
(dp2025
sg76
g2010
sg69
(lp2026
g62
(g63
g64
NtRp2027
(dp2028
g67
(dp2029
g75
I4
ssg76
g2023
sg69
(lp2030
S'<class wsgiref.util.FileWrapper at 0x2faba78>'
p2031
asbasbasbag62
(g78
g64
NtRp2032
(dp2033
g67
(dp2034
sg76
g1197
sg69
(lp2035
g62
(g83
g64
NtRp2036
(dp2037
g67
(dp2038
g87
g88
ssg76
g2032
sg69
(lp2039
S'wsgi_input'
p2040
asbag62
(g83
g64
NtRp2041
(dp2042
g67
(dp2043
g94
g95
ssg76
g2032
sg69
(lp2044
S':'
asbag62
(g83
g64
NtRp2045
(dp2046
g67
(dp2047
sg76
g2032
sg69
(lp2048
g62
(g63
g64
NtRp2049
(dp2050
g67
(dp2051
g75
I4
ssg76
g2045
sg69
(lp2052
S'<socket._fileobject object at 0x3e400d0>'
p2053
asbasbasbag62
(g78
g64
NtRp2054
(dp2055
g67
(dp2056
sg76
g1197
sg69
(lp2057
g62
(g83
g64
NtRp2058
(dp2059
g67
(dp2060
g87
g88
ssg76
g2054
sg69
(lp2061
S'wsgi_multiprocess'
p2062
asbag62
(g83
g64
NtRp2063
(dp2064
g67
(dp2065
g94
g95
ssg76
g2054
sg69
(lp2066
S':'
asbag62
(g83
g64
NtRp2067
(dp2068
g67
(dp2069
sg76
g2054
sg69
(lp2070
g62
(g63
g64
NtRp2071
(dp2072
g67
(dp2073
g75
I4
ssg76
g2067
sg69
(lp2074
g105
asbasbasbag62
(g78
g64
NtRp2075
(dp2076
g67
(dp2077
sg76
g1197
sg69
(lp2078
g62
(g83
g64
NtRp2079
(dp2080
g67
(dp2081
g87
g88
ssg76
g2075
sg69
(lp2082
S'wsgi_multithread'
p2083
asbag62
(g83
g64
NtRp2084
(dp2085
g67
(dp2086
g94
g95
ssg76
g2075
sg69
(lp2087
S':'
asbag62
(g83
g64
NtRp2088
(dp2089
g67
(dp2090
sg76
g2075
sg69
(lp2091
g62
(g63
g64
NtRp2092
(dp2093
g67
(dp2094
g75
I4
ssg76
g2088
sg69
(lp2095
S'True'
p2096
asbasbasbag62
(g78
g64
NtRp2097
(dp2098
g67
(dp2099
sg76
g1197
sg69
(lp2100
g62
(g83
g64
NtRp2101
(dp2102
g67
(dp2103
g87
g88
ssg76
g2097
sg69
(lp2104
S'wsgi_run_once'
p2105
asbag62
(g83
g64
NtRp2106
(dp2107
g67
(dp2108
g94
g95
ssg76
g2097
sg69
(lp2109
S':'
asbag62
(g83
g64
NtRp2110
(dp2111
g67
(dp2112
sg76
g2097
sg69
(lp2113
g62
(g63
g64
NtRp2114
(dp2115
g67
(dp2116
g75
I4
ssg76
g2110
sg69
(lp2117
g105
asbasbasbag62
(g78
g64
NtRp2118
(dp2119
g67
(dp2120
sg76
g1197
sg69
(lp2121
g62
(g83
g64
NtRp2122
(dp2123
g67
(dp2124
g87
g88
ssg76
g2118
sg69
(lp2125
S'wsgi_url_scheme'
p2126
asbag62
(g83
g64
NtRp2127
(dp2128
g67
(dp2129
g94
g95
ssg76
g2118
sg69
(lp2130
S':'
asbag62
(g83
g64
NtRp2131
(dp2132
g67
(dp2133
sg76
g2118
sg69
(lp2134
g62
(g63
g64
NtRp2135
(dp2136
g67
(dp2137
g75
I4
ssg76
g2131
sg69
(lp2138
S'http'
p2139
asbasbasbag62
(g78
g64
NtRp2140
(dp2141
g67
(dp2142
sg76
g1197
sg69
(lp2143
g62
(g83
g64
NtRp2144
(dp2145
g67
(dp2146
g87
g88
ssg76
g2140
sg69
(lp2147
S'wsgi_version'
p2148
asbag62
(g83
g64
NtRp2149
(dp2150
g67
(dp2151
g94
g95
ssg76
g2140
sg69
(lp2152
S':'
asbag62
(g83
g64
NtRp2153
(dp2154
g67
(dp2155
sg76
g2140
sg69
(lp2156
g62
(g63
g64
NtRp2157
(dp2158
g67
(dp2159
g75
I4
ssg76
g2153
sg69
(lp2160
g62
(g71
g64
NtRp2161
(dp2162
g67
(dp2163
g75
I3
ssg76
Nsg69
(lp2164
g62
(g78
g64
NtRp2165
(dp2166
g67
(dp2167
sg76
g2161
sg69
(lp2168
g62
(g83
g64
NtRp2169
(dp2170
g67
(dp2171
sg76
g2165
sg69
(lp2172
g62
(g63
g64
NtRp2173
(dp2174
g67
(dp2175
g75
I3
ssg76
g2169
sg69
(lp2176
S'1'
asbasbasbag62
(g78
g64
NtRp2177
(dp2178
g67
(dp2179
sg76
g2161
sg69
(lp2180
g62
(g83
g64
NtRp2181
(dp2182
g67
(dp2183
sg76
g2177
sg69
(lp2184
g62
(g63
g64
NtRp2185
(dp2186
g67
(dp2187
g75
I3
ssg76
g2181
sg69
(lp2188
S'0'
asbasbasbasbasbasbasbasbasbasbasbag62
(g78
g64
NtRp2189
(dp2190
g67
(dp2191
sg76
g72
sg69
(lp2192
g62
(g83
g64
NtRp2193
(dp2194
g67
(dp2195
g87
g88
ssg76
g2189
sg69
(lp2196
S'extension'
p2197
asbag62
(g83
g64
NtRp2198
(dp2199
g67
(dp2200
g94
g95
ssg76
g2189
sg69
(lp2201
S':'
asbag62
(g83
g64
NtRp2202
(dp2203
g67
(dp2204
sg76
g2189
sg69
(lp2205
g62
(g63
g64
NtRp2206
(dp2207
g67
(dp2208
g75
I5
ssg76
g2202
sg69
(lp2209
S'html'
p2210
asbasbasbag62
(g78
g64
NtRp2211
(dp2212
g67
(dp2213
sg76
g72
sg69
(lp2214
g62
(g83
g64
NtRp2215
(dp2216
g67
(dp2217
g87
g88
ssg76
g2211
sg69
(lp2218
S'folder'
p2219
asbag62
(g83
g64
NtRp2220
(dp2221
g67
(dp2222
g94
g95
ssg76
g2211
sg69
(lp2223
S':'
asbag62
(g83
g64
NtRp2224
(dp2225
g67
(dp2226
sg76
g2211
sg69
(lp2227
g62
(g63
g64
NtRp2228
(dp2229
g67
(dp2230
g75
I5
ssg76
g2224
sg69
(lp2231
S'/windows/Users/Thomas/Dropbox/appz/2011/dotcloud_web2py/applications/fansubcheck/'
p2232
asbasbasbag62
(g78
g64
NtRp2233
(dp2234
g67
(dp2235
sg76
g72
sg69
(lp2236
g62
(g83
g64
NtRp2237
(dp2238
g67
(dp2239
g87
g88
ssg76
g2233
sg69
(lp2240
S'function'
p2241
asbag62
(g83
g64
NtRp2242
(dp2243
g67
(dp2244
g94
g95
ssg76
g2233
sg69
(lp2245
S':'
asbag62
(g83
g64
NtRp2246
(dp2247
g67
(dp2248
sg76
g2233
sg69
(lp2249
g62
(g63
g64
NtRp2250
(dp2251
g67
(dp2252
g75
I5
ssg76
g2246
sg69
(lp2253
S'add_qc'
p2254
asbasbasbag62
(g78
g64
NtRp2255
(dp2256
g67
(dp2257
sg76
g72
sg69
(lp2258
g62
(g83
g64
NtRp2259
(dp2260
g67
(dp2261
g87
g88
ssg76
g2255
sg69
(lp2262
S'get_vars'
p2263
asbag62
(g83
g64
NtRp2264
(dp2265
g67
(dp2266
g94
g95
ssg76
g2255
sg69
(lp2267
S':'
asbag62
(g83
g64
NtRp2268
(dp2269
g67
(dp2270
sg76
g2255
sg69
(lp2271
g62
(g63
g64
NtRp2272
(dp2273
g67
(dp2274
g75
I5
ssg76
g2268
sg69
(lp2275
g62
(g71
g64
NtRp2276
(dp2277
g67
(dp2278
g75
I4
ssg76
Nsg69
(lp2279
sbasbasbasbag62
(g78
g64
NtRp2280
(dp2281
g67
(dp2282
sg76
g72
sg69
(lp2283
g62
(g83
g64
NtRp2284
(dp2285
g67
(dp2286
g87
g88
ssg76
g2280
sg69
(lp2287
S'global_settings'
p2288
asbag62
(g83
g64
NtRp2289
(dp2290
g67
(dp2291
g94
g95
ssg76
g2280
sg69
(lp2292
S':'
asbag62
(g83
g64
NtRp2293
(dp2294
g67
(dp2295
sg76
g2280
sg69
(lp2296
g62
(g63
g64
NtRp2297
(dp2298
g67
(dp2299
g75
I5
ssg76
g2293
sg69
(lp2300
g62
(g71
g64
NtRp2301
(dp2302
g67
(dp2303
g75
I4
ssg76
Nsg69
(lp2304
g62
(g78
g64
NtRp2305
(dp2306
g67
(dp2307
sg76
g2301
sg69
(lp2308
g62
(g83
g64
NtRp2309
(dp2310
g67
(dp2311
g87
g88
ssg76
g2305
sg69
(lp2312
g1209
asbag62
(g83
g64
NtRp2313
(dp2314
g67
(dp2315
g94
g95
ssg76
g2305
sg69
(lp2316
S':'
asbag62
(g83
g64
NtRp2317
(dp2318
g67
(dp2319
sg76
g2305
sg69
(lp2320
g62
(g63
g64
NtRp2321
(dp2322
g67
(dp2323
g75
I4
ssg76
g2317
sg69
(lp2324
S"set(['/windows/Users/Thomas/Dropbox/appz/2011/dotcloud_web2py/applications/admin/', '/windows/Users/Thomas/Dropbox/appz/2011/dotcloud_web2py/applications/fansubcheck/'])"
p2325
asbasbasbag62
(g78
g64
NtRp2326
(dp2327
g67
(dp2328
sg76
g2301
sg69
(lp2329
g62
(g83
g64
NtRp2330
(dp2331
g67
(dp2332
g87
g88
ssg76
g2326
sg69
(lp2333
g1231
asbag62
(g83
g64
NtRp2334
(dp2335
g67
(dp2336
g94
g95
ssg76
g2326
sg69
(lp2337
S':'
asbag62
(g83
g64
NtRp2338
(dp2339
g67
(dp2340
sg76
g2326
sg69
(lp2341
g62
(g63
g64
NtRp2342
(dp2343
g67
(dp2344
g75
I4
ssg76
g2338
sg69
(lp2345
g1244
asbasbasbag62
(g78
g64
NtRp2346
(dp2347
g67
(dp2348
sg76
g2301
sg69
(lp2349
g62
(g83
g64
NtRp2350
(dp2351
g67
(dp2352
g87
g88
ssg76
g2346
sg69
(lp2353
g1253
asbag62
(g83
g64
NtRp2354
(dp2355
g67
(dp2356
g94
g95
ssg76
g2346
sg69
(lp2357
S':'
asbag62
(g83
g64
NtRp2358
(dp2359
g67
(dp2360
sg76
g2346
sg69
(lp2361
g62
(g63
g64
NtRp2362
(dp2363
g67
(dp2364
g75
I4
ssg76
g2358
sg69
(lp2365
g62
(g71
g64
NtRp2366
(dp2367
g67
(dp2368
g75
I3
ssg76
Nsg69
(lp2369
sbasbasbasbag62
(g78
g64
NtRp2370
(dp2371
g67
(dp2372
sg76
g2301
sg69
(lp2373
g62
(g83
g64
NtRp2374
(dp2375
g67
(dp2376
g87
g88
ssg76
g2370
sg69
(lp2377
g1278
asbag62
(g83
g64
NtRp2378
(dp2379
g67
(dp2380
g94
g95
ssg76
g2370
sg69
(lp2381
S':'
asbag62
(g83
g64
NtRp2382
(dp2383
g67
(dp2384
sg76
g2370
sg69
(lp2385
g62
(g63
g64
NtRp2386
(dp2387
g67
(dp2388
g75
I4
ssg76
g2382
sg69
(lp2389
S"<Values at 0x3115488: {'verbose': False, 'ip': '127.0.0.1', 'shutdown_timeout': 5, 'taskbar': False, 'nocron': False, 'pid_filename': 'httpserver.pid', 'maxthreads': None, 'softcron': False, 'server_name': 'VPCF22AJ', 'bpython': False, 'nogui': False, 'port': 8000, 'extcron': False, 'debuglevel': 30, 'test': None, 'folder': '/windows/Users/Thomas/Dropbox/appz/2011/dotcloud_web2py', 'config': '', 'import_models': False, 'winservice': '', 'shell': None, 'run': '', 'log_filename': 'httpserver.log', 'args': [''], 'socket_timeout': 1, 'ssl_ca_certificate': None, 'scheduler': None, 'profiler_filename': None, 'ssl_private_key': '', 'password': 'admin', 'request_queue_size': 5, 'ssl_certificate': '', 'cronjob': False, 'numthreads': None, 'quiet': False, 'interfaces': None, 'minthreads': None, 'timeout': 10, 'plain': False, 'nobanner': False}>"
p2390
asbasbasbag62
(g78
g64
NtRp2391
(dp2392
g67
(dp2393
sg76
g2301
sg69
(lp2394
g62
(g83
g64
NtRp2395
(dp2396
g67
(dp2397
g87
g88
ssg76
g2391
sg69
(lp2398
g1300
asbag62
(g83
g64
NtRp2399
(dp2400
g67
(dp2401
g94
g95
ssg76
g2391
sg69
(lp2402
S':'
asbag62
(g83
g64
NtRp2403
(dp2404
g67
(dp2405
sg76
g2391
sg69
(lp2406
g62
(g63
g64
NtRp2407
(dp2408
g67
(dp2409
g75
I4
ssg76
g2403
sg69
(lp2410
S'set([])'
p2411
asbasbasbag62
(g78
g64
NtRp2412
(dp2413
g67
(dp2414
sg76
g2301
sg69
(lp2415
g62
(g83
g64
NtRp2416
(dp2417
g67
(dp2418
g87
g88
ssg76
g2412
sg69
(lp2419
g1322
asbag62
(g83
g64
NtRp2420
(dp2421
g67
(dp2422
g94
g95
ssg76
g2412
sg69
(lp2423
S':'
asbag62
(g83
g64
NtRp2424
(dp2425
g67
(dp2426
sg76
g2412
sg69
(lp2427
g62
(g63
g64
NtRp2428
(dp2429
g67
(dp2430
g75
I4
ssg76
g2424
sg69
(lp2431
g105
asbasbasbag62
(g78
g64
NtRp2432
(dp2433
g67
(dp2434
sg76
g2301
sg69
(lp2435
g62
(g83
g64
NtRp2436
(dp2437
g67
(dp2438
g87
g88
ssg76
g2432
sg69
(lp2439
g1343
asbag62
(g83
g64
NtRp2440
(dp2441
g67
(dp2442
g94
g95
ssg76
g2432
sg69
(lp2443
S':'
asbag62
(g83
g64
NtRp2444
(dp2445
g67
(dp2446
sg76
g2432
sg69
(lp2447
g62
(g63
g64
NtRp2448
(dp2449
g67
(dp2450
g75
I4
ssg76
g2444
sg69
(lp2451
g1356
asbasbasbag62
(g78
g64
NtRp2452
(dp2453
g67
(dp2454
sg76
g2301
sg69
(lp2455
g62
(g83
g64
NtRp2456
(dp2457
g67
(dp2458
g87
g88
ssg76
g2452
sg69
(lp2459
g1563
asbag62
(g83
g64
NtRp2460
(dp2461
g67
(dp2462
g94
g95
ssg76
g2452
sg69
(lp2463
S':'
asbag62
(g83
g64
NtRp2464
(dp2465
g67
(dp2466
sg76
g2452
sg69
(lp2467
g62
(g63
g64
NtRp2468
(dp2469
g67
(dp2470
g75
I4
ssg76
g2464
sg69
(lp2471
g105
asbasbasbag62
(g78
g64
NtRp2472
(dp2473
g67
(dp2474
sg76
g2301
sg69
(lp2475
g62
(g83
g64
NtRp2476
(dp2477
g67
(dp2478
g87
g88
ssg76
g2472
sg69
(lp2479
g1584
asbag62
(g83
g64
NtRp2480
(dp2481
g67
(dp2482
g94
g95
ssg76
g2472
sg69
(lp2483
S':'
asbag62
(g83
g64
NtRp2484
(dp2485
g67
(dp2486
sg76
g2472
sg69
(lp2487
g62
(g63
g64
NtRp2488
(dp2489
g67
(dp2490
g75
I4
ssg76
g2484
sg69
(lp2491
g105
asbasbasbag62
(g78
g64
NtRp2492
(dp2493
g67
(dp2494
sg76
g2301
sg69
(lp2495
g62
(g83
g64
NtRp2496
(dp2497
g67
(dp2498
g87
g88
ssg76
g2492
sg69
(lp2499
g1843
asbag62
(g83
g64
NtRp2500
(dp2501
g67
(dp2502
g94
g95
ssg76
g2492
sg69
(lp2503
S':'
asbag62
(g83
g64
NtRp2504
(dp2505
g67
(dp2506
sg76
g2492
sg69
(lp2507
g62
(g63
g64
NtRp2508
(dp2509
g67
(dp2510
g75
I4
ssg76
g2504
sg69
(lp2511
g1856
asbasbasbag62
(g78
g64
NtRp2512
(dp2513
g67
(dp2514
sg76
g2301
sg69
(lp2515
g62
(g83
g64
NtRp2516
(dp2517
g67
(dp2518
g87
g88
ssg76
g2512
sg69
(lp2519
g1908
asbag62
(g83
g64
NtRp2520
(dp2521
g67
(dp2522
g94
g95
ssg76
g2512
sg69
(lp2523
S':'
asbag62
(g83
g64
NtRp2524
(dp2525
g67
(dp2526
sg76
g2512
sg69
(lp2527
g62
(g63
g64
NtRp2528
(dp2529
g67
(dp2530
g75
I4
ssg76
g2524
sg69
(lp2531
g62
(g71
g64
NtRp2532
(dp2533
g67
(dp2534
g75
I3
ssg76
Nsg69
(lp2535
g62
(g78
g64
NtRp2536
(dp2537
g67
(dp2538
sg76
g2532
sg69
(lp2539
g62
(g83
g64
NtRp2540
(dp2541
g67
(dp2542
sg76
g2536
sg69
(lp2543
g62
(g63
g64
NtRp2544
(dp2545
g67
(dp2546
g75
I3
ssg76
g2540
sg69
(lp2547
S'1'
asbasbasbag62
(g78
g64
NtRp2548
(dp2549
g67
(dp2550
sg76
g2532
sg69
(lp2551
g62
(g83
g64
NtRp2552
(dp2553
g67
(dp2554
sg76
g2548
sg69
(lp2555
g62
(g63
g64
NtRp2556
(dp2557
g67
(dp2558
g75
I3
ssg76
g2552
sg69
(lp2559
S'99'
p2560
asbasbasbag62
(g78
g64
NtRp2561
(dp2562
g67
(dp2563
sg76
g2532
sg69
(lp2564
g62
(g83
g64
NtRp2565
(dp2566
g67
(dp2567
sg76
g2561
sg69
(lp2568
g62
(g63
g64
NtRp2569
(dp2570
g67
(dp2571
g75
I3
ssg76
g2565
sg69
(lp2572
S'4'
asbasbasbag62
(g78
g64
NtRp2573
(dp2574
g67
(dp2575
sg76
g2532
sg69
(lp2576
g62
(g83
g64
NtRp2577
(dp2578
g67
(dp2579
sg76
g2573
sg69
(lp2580
g62
(g63
g64
NtRp2581
(dp2582
g67
(dp2583
g75
I3
ssg76
g2577
sg69
(lp2584
S'datetime.datetime(2011, 12, 14, 14, 46, 14)'
p2585
asbasbasbag62
(g78
g64
NtRp2586
(dp2587
g67
(dp2588
sg76
g2532
sg69
(lp2589
g62
(g83
g64
NtRp2590
(dp2591
g67
(dp2592
sg76
g2586
sg69
(lp2593
g62
(g63
g64
NtRp2594
(dp2595
g67
(dp2596
g75
I3
ssg76
g2590
sg69
(lp2597
g1987
asbasbasbasbasbasbasbasbasbasbasbag62
(g78
g64
NtRp2598
(dp2599
g67
(dp2600
sg76
g72
sg69
(lp2601
g62
(g83
g64
NtRp2602
(dp2603
g67
(dp2604
g87
g88
ssg76
g2598
sg69
(lp2605
S'is_https'
p2606
asbag62
(g83
g64
NtRp2607
(dp2608
g67
(dp2609
g94
g95
ssg76
g2598
sg69
(lp2610
S':'
asbag62
(g83
g64
NtRp2611
(dp2612
g67
(dp2613
sg76
g2598
sg69
(lp2614
g62
(g63
g64
NtRp2615
(dp2616
g67
(dp2617
g75
I5
ssg76
g2611
sg69
(lp2618
g105
asbasbasbag62
(g78
g64
NtRp2619
(dp2620
g67
(dp2621
sg76
g72
sg69
(lp2622
g62
(g83
g64
NtRp2623
(dp2624
g67
(dp2625
g87
g88
ssg76
g2619
sg69
(lp2626
S'is_local'
p2627
asbag62
(g83
g64
NtRp2628
(dp2629
g67
(dp2630
g94
g95
ssg76
g2619
sg69
(lp2631
S':'
asbag62
(g83
g64
NtRp2632
(dp2633
g67
(dp2634
sg76
g2619
sg69
(lp2635
g62
(g63
g64
NtRp2636
(dp2637
g67
(dp2638
g75
I5
ssg76
g2632
sg69
(lp2639
g2096
asbasbasbag62
(g78
g64
NtRp2640
(dp2641
g67
(dp2642
sg76
g72
sg69
(lp2643
g62
(g83
g64
NtRp2644
(dp2645
g67
(dp2646
g87
g88
ssg76
g2640
sg69
(lp2647
S'is_restful'
p2648
asbag62
(g83
g64
NtRp2649
(dp2650
g67
(dp2651
g94
g95
ssg76
g2640
sg69
(lp2652
S':'
asbag62
(g83
g64
NtRp2653
(dp2654
g67
(dp2655
sg76
g2640
sg69
(lp2656
g62
(g63
g64
NtRp2657
(dp2658
g67
(dp2659
g75
I5
ssg76
g2653
sg69
(lp2660
g105
asbasbasbag62
(g78
g64
NtRp2661
(dp2662
g67
(dp2663
sg76
g72
sg69
(lp2664
g62
(g83
g64
NtRp2665
(dp2666
g67
(dp2667
g87
g88
ssg76
g2661
sg69
(lp2668
S'now'
p2669
asbag62
(g83
g64
NtRp2670
(dp2671
g67
(dp2672
g94
g95
ssg76
g2661
sg69
(lp2673
S':'
asbag62
(g83
g64
NtRp2674
(dp2675
g67
(dp2676
sg76
g2661
sg69
(lp2677
g62
(g63
g64
NtRp2678
(dp2679
g67
(dp2680
g75
I5
ssg76
g2674
sg69
(lp2681
S'datetime.datetime(2011, 12, 31, 12, 28, 14, 818474)'
p2682
asbasbasbag62
(g78
g64
NtRp2683
(dp2684
g67
(dp2685
sg76
g72
sg69
(lp2686
g62
(g83
g64
NtRp2687
(dp2688
g67
(dp2689
g87
g88
ssg76
g2683
sg69
(lp2690
S'post_vars'
p2691
asbag62
(g83
g64
NtRp2692
(dp2693
g67
(dp2694
g94
g95
ssg76
g2683
sg69
(lp2695
S':'
asbag62
(g83
g64
NtRp2696
(dp2697
g67
(dp2698
sg76
g2683
sg69
(lp2699
g62
(g63
g64
NtRp2700
(dp2701
g67
(dp2702
g75
I5
ssg76
g2696
sg69
(lp2703
g62
(g71
g64
NtRp2704
(dp2705
g67
(dp2706
g75
I4
ssg76
Nsg69
(lp2707
sbasbasbasbag62
(g78
g64
NtRp2708
(dp2709
g67
(dp2710
sg76
g72
sg69
(lp2711
g62
(g83
g64
NtRp2712
(dp2713
g67
(dp2714
g87
g88
ssg76
g2708
sg69
(lp2715
S'url'
p2716
asbag62
(g83
g64
NtRp2717
(dp2718
g67
(dp2719
g94
g95
ssg76
g2708
sg69
(lp2720
S':'
asbag62
(g83
g64
NtRp2721
(dp2722
g67
(dp2723
sg76
g2708
sg69
(lp2724
g62
(g63
g64
NtRp2725
(dp2726
g67
(dp2727
g75
I5
ssg76
g2721
sg69
(lp2728
S'/add_qc'
p2729
asbasbasbag62
(g78
g64
NtRp2730
(dp2731
g67
(dp2732
sg76
g72
sg69
(lp2733
g62
(g83
g64
NtRp2734
(dp2735
g67
(dp2736
g87
g88
ssg76
g2730
sg69
(lp2737
S'utcnow'
p2738
asbag62
(g83
g64
NtRp2739
(dp2740
g67
(dp2741
g94
g95
ssg76
g2730
sg69
(lp2742
S':'
asbag62
(g83
g64
NtRp2743
(dp2744
g67
(dp2745
sg76
g2730
sg69
(lp2746
g62
(g63
g64
NtRp2747
(dp2748
g67
(dp2749
g75
I5
ssg76
g2743
sg69
(lp2750
S'datetime.datetime(2011, 12, 31, 3, 28, 14, 818500)'
p2751
asbasbasbag62
(g78
g64
NtRp2752
(dp2753
g67
(dp2754
sg76
g72
sg69
(lp2755
g62
(g83
g64
NtRp2756
(dp2757
g67
(dp2758
g87
g88
ssg76
g2752
sg69
(lp2759
S'uuid'
p2760
asbag62
(g83
g64
NtRp2761
(dp2762
g67
(dp2763
g94
g95
ssg76
g2752
sg69
(lp2764
S':'
asbag62
(g83
g64
NtRp2765
(dp2766
g67
(dp2767
sg76
g2752
sg69
(lp2768
g62
(g63
g64
NtRp2769
(dp2770
g67
(dp2771
g75
I5
ssg76
g2765
sg69
(lp2772
S'fansubcheck/127.0.0.1.2011-12-31.12-28-14.7d2944b5-a84d-492d-8494-7022023878ac'
p2773
asbasbasbag62
(g78
g64
NtRp2774
(dp2775
g67
(dp2776
sg76
g72
sg69
(lp2777
g62
(g83
g64
NtRp2778
(dp2779
g67
(dp2780
g87
g88
ssg76
g2774
sg69
(lp2781
S'vars'
p2782
asbag62
(g83
g64
NtRp2783
(dp2784
g67
(dp2785
g94
g95
ssg76
g2774
sg69
(lp2786
S':'
asbag62
(g83
g64
NtRp2787
(dp2788
g67
(dp2789
sg76
g2774
sg69
(lp2790
g62
(g63
g64
NtRp2791
(dp2792
g67
(dp2793
g75
I5
ssg76
g2787
sg69
(lp2794
g62
(g71
g64
NtRp2795
(dp2796
g67
(dp2797
g75
I4
ssg76
Nsg69
(lp2798
sbasbasbasbag62
(g78
g64
NtRp2799
(dp2800
g67
(dp2801
sg76
g72
sg69
(lp2802
g62
(g83
g64
NtRp2803
(dp2804
g67
(dp2805
g87
g88
ssg76
g2799
sg69
(lp2806
S'wsgi'
p2807
asbag62
(g83
g64
NtRp2808
(dp2809
g67
(dp2810
g94
g95
ssg76
g2799
sg69
(lp2811
S':'
asbag62
(g83
g64
NtRp2812
(dp2813
g67
(dp2814
sg76
g2799
sg69
(lp2815
g62
(g63
g64
NtRp2816
(dp2817
g67
(dp2818
g75
I5
ssg76
g2812
sg69
(lp2819
g62
(g71
g64
NtRp2820
(dp2821
g67
(dp2822
g75
I4
ssg76
Nsg69
(lp2823
g62
(g78
g64
NtRp2824
(dp2825
g67
(dp2826
sg76
g2820
sg69
(lp2827
g62
(g83
g64
NtRp2828
(dp2829
g67
(dp2830
g87
g88
ssg76
g2824
sg69
(lp2831
S'environ'
p2832
asbag62
(g83
g64
NtRp2833
(dp2834
g67
(dp2835
g94
g95
ssg76
g2824
sg69
(lp2836
S':'
asbag62
(g83
g64
NtRp2837
(dp2838
g67
(dp2839
sg76
g2824
sg69
(lp2840
g62
(g63
g64
NtRp2841
(dp2842
g67
(dp2843
g75
I4
ssg76
g2837
sg69
(lp2844
g62
(g71
g64
NtRp2845
(dp2846
g67
(dp2847
g75
I3
ssg76
Nsg69
(lp2848
g62
(g78
g64
NtRp2849
(dp2850
g67
(dp2851
sg76
g2845
sg69
(lp2852
g62
(g83
g64
NtRp2853
(dp2854
g67
(dp2855
g87
g88
ssg76
g2849
sg69
(lp2856
S'HTTP_ACCEPT'
p2857
asbag62
(g83
g64
NtRp2858
(dp2859
g67
(dp2860
g94
g95
ssg76
g2849
sg69
(lp2861
S':'
asbag62
(g83
g64
NtRp2862
(dp2863
g67
(dp2864
sg76
g2849
sg69
(lp2865
g62
(g63
g64
NtRp2866
(dp2867
g67
(dp2868
g75
I3
ssg76
g2862
sg69
(lp2869
g1378
asbasbasbag62
(g78
g64
NtRp2870
(dp2871
g67
(dp2872
sg76
g2845
sg69
(lp2873
g62
(g83
g64
NtRp2874
(dp2875
g67
(dp2876
g87
g88
ssg76
g2870
sg69
(lp2877
S'HTTP_ACCEPT_CHARSET'
p2878
asbag62
(g83
g64
NtRp2879
(dp2880
g67
(dp2881
g94
g95
ssg76
g2870
sg69
(lp2882
S':'
asbag62
(g83
g64
NtRp2883
(dp2884
g67
(dp2885
sg76
g2870
sg69
(lp2886
g62
(g63
g64
NtRp2887
(dp2888
g67
(dp2889
g75
I3
ssg76
g2883
sg69
(lp2890
g1400
asbasbasbag62
(g78
g64
NtRp2891
(dp2892
g67
(dp2893
sg76
g2845
sg69
(lp2894
g62
(g83
g64
NtRp2895
(dp2896
g67
(dp2897
g87
g88
ssg76
g2891
sg69
(lp2898
S'HTTP_ACCEPT_ENCODING'
p2899
asbag62
(g83
g64
NtRp2900
(dp2901
g67
(dp2902
g94
g95
ssg76
g2891
sg69
(lp2903
S':'
asbag62
(g83
g64
NtRp2904
(dp2905
g67
(dp2906
sg76
g2891
sg69
(lp2907
g62
(g63
g64
NtRp2908
(dp2909
g67
(dp2910
g75
I3
ssg76
g2904
sg69
(lp2911
g1422
asbasbasbag62
(g78
g64
NtRp2912
(dp2913
g67
(dp2914
sg76
g2845
sg69
(lp2915
g62
(g83
g64
NtRp2916
(dp2917
g67
(dp2918
g87
g88
ssg76
g2912
sg69
(lp2919
S'HTTP_ACCEPT_LANGUAGE'
p2920
asbag62
(g83
g64
NtRp2921
(dp2922
g67
(dp2923
g94
g95
ssg76
g2912
sg69
(lp2924
S':'
asbag62
(g83
g64
NtRp2925
(dp2926
g67
(dp2927
sg76
g2912
sg69
(lp2928
g62
(g63
g64
NtRp2929
(dp2930
g67
(dp2931
g75
I3
ssg76
g2925
sg69
(lp2932
g1444
asbasbasbag62
(g78
g64
NtRp2933
(dp2934
g67
(dp2935
sg76
g2845
sg69
(lp2936
g62
(g83
g64
NtRp2937
(dp2938
g67
(dp2939
g87
g88
ssg76
g2933
sg69
(lp2940
S'HTTP_CONNECTION'
p2941
asbag62
(g83
g64
NtRp2942
(dp2943
g67
(dp2944
g94
g95
ssg76
g2933
sg69
(lp2945
S':'
asbag62
(g83
g64
NtRp2946
(dp2947
g67
(dp2948
sg76
g2933
sg69
(lp2949
g62
(g63
g64
NtRp2950
(dp2951
g67
(dp2952
g75
I3
ssg76
g2946
sg69
(lp2953
g1466
asbasbasbag62
(g78
g64
NtRp2954
(dp2955
g67
(dp2956
sg76
g2845
sg69
(lp2957
g62
(g83
g64
NtRp2958
(dp2959
g67
(dp2960
g87
g88
ssg76
g2954
sg69
(lp2961
S'HTTP_COOKIE'
p2962
asbag62
(g83
g64
NtRp2963
(dp2964
g67
(dp2965
g94
g95
ssg76
g2954
sg69
(lp2966
S':'
asbag62
(g83
g64
NtRp2967
(dp2968
g67
(dp2969
sg76
g2954
sg69
(lp2970
g62
(g63
g64
NtRp2971
(dp2972
g67
(dp2973
g75
I3
ssg76
g2967
sg69
(lp2974
g1488
asbasbasbag62
(g78
g64
NtRp2975
(dp2976
g67
(dp2977
sg76
g2845
sg69
(lp2978
g62
(g83
g64
NtRp2979
(dp2980
g67
(dp2981
g87
g88
ssg76
g2975
sg69
(lp2982
S'HTTP_HOST'
p2983
asbag62
(g83
g64
NtRp2984
(dp2985
g67
(dp2986
g94
g95
ssg76
g2975
sg69
(lp2987
S':'
asbag62
(g83
g64
NtRp2988
(dp2989
g67
(dp2990
sg76
g2975
sg69
(lp2991
g62
(g63
g64
NtRp2992
(dp2993
g67
(dp2994
g75
I3
ssg76
g2988
sg69
(lp2995
g1510
asbasbasbag62
(g78
g64
NtRp2996
(dp2997
g67
(dp2998
sg76
g2845
sg69
(lp2999
g62
(g83
g64
NtRp3000
(dp3001
g67
(dp3002
g87
g88
ssg76
g2996
sg69
(lp3003
S'HTTP_REFERER'
p3004
asbag62
(g83
g64
NtRp3005
(dp3006
g67
(dp3007
g94
g95
ssg76
g2996
sg69
(lp3008
S':'
asbag62
(g83
g64
NtRp3009
(dp3010
g67
(dp3011
sg76
g2996
sg69
(lp3012
g62
(g63
g64
NtRp3013
(dp3014
g67
(dp3015
g75
I3
ssg76
g3009
sg69
(lp3016
g1532
asbasbasbag62
(g78
g64
NtRp3017
(dp3018
g67
(dp3019
sg76
g2845
sg69
(lp3020
g62
(g83
g64
NtRp3021
(dp3022
g67
(dp3023
g87
g88
ssg76
g3017
sg69
(lp3024
S'HTTP_USER_AGENT'
p3025
asbag62
(g83
g64
NtRp3026
(dp3027
g67
(dp3028
g94
g95
ssg76
g3017
sg69
(lp3029
S':'
asbag62
(g83
g64
NtRp3030
(dp3031
g67
(dp3032
sg76
g3017
sg69
(lp3033
g62
(g63
g64
NtRp3034
(dp3035
g67
(dp3036
g75
I3
ssg76
g3030
sg69
(lp3037
g1554
asbasbasbag62
(g78
g64
NtRp3038
(dp3039
g67
(dp3040
sg76
g2845
sg69
(lp3041
g62
(g83
g64
NtRp3042
(dp3043
g67
(dp3044
g87
g88
ssg76
g3038
sg69
(lp3045
S'PATH_INFO'
p3046
asbag62
(g83
g64
NtRp3047
(dp3048
g67
(dp3049
g94
g95
ssg76
g3038
sg69
(lp3050
S':'
asbag62
(g83
g64
NtRp3051
(dp3052
g67
(dp3053
sg76
g3038
sg69
(lp3054
g62
(g63
g64
NtRp3055
(dp3056
g67
(dp3057
g75
I3
ssg76
g3051
sg69
(lp3058
g1618
asbasbasbag62
(g78
g64
NtRp3059
(dp3060
g67
(dp3061
sg76
g2845
sg69
(lp3062
g62
(g83
g64
NtRp3063
(dp3064
g67
(dp3065
g87
g88
ssg76
g3059
sg69
(lp3066
S'QUERY_STRING'
p3067
asbag62
(g83
g64
NtRp3068
(dp3069
g67
(dp3070
g94
g95
ssg76
g3059
sg69
(lp3071
S':'
asbag62
(g83
g64
NtRp3072
(dp3073
g67
(dp3074
sg76
g3059
sg69
(lp3075
g62
(g63
g64
NtRp3076
(dp3077
g67
(dp3078
g75
I3
ssg76
g3072
sg69
(lp3079
S''
asbasbasbag62
(g78
g64
NtRp3080
(dp3081
g67
(dp3082
sg76
g2845
sg69
(lp3083
g62
(g83
g64
NtRp3084
(dp3085
g67
(dp3086
g87
g88
ssg76
g3080
sg69
(lp3087
S'REMOTE_ADDR'
p3088
asbag62
(g83
g64
NtRp3089
(dp3090
g67
(dp3091
g94
g95
ssg76
g3080
sg69
(lp3092
S':'
asbag62
(g83
g64
NtRp3093
(dp3094
g67
(dp3095
sg76
g3080
sg69
(lp3096
g62
(g63
g64
NtRp3097
(dp3098
g67
(dp3099
g75
I3
ssg76
g3093
sg69
(lp3100
g195
asbasbasbag62
(g78
g64
NtRp3101
(dp3102
g67
(dp3103
sg76
g2845
sg69
(lp3104
g62
(g83
g64
NtRp3105
(dp3106
g67
(dp3107
g87
g88
ssg76
g3101
sg69
(lp3108
S'REMOTE_PORT'
p3109
asbag62
(g83
g64
NtRp3110
(dp3111
g67
(dp3112
g94
g95
ssg76
g3101
sg69
(lp3113
S':'
asbag62
(g83
g64
NtRp3114
(dp3115
g67
(dp3116
sg76
g3101
sg69
(lp3117
g62
(g63
g64
NtRp3118
(dp3119
g67
(dp3120
g75
I3
ssg76
g3114
sg69
(lp3121
g1682
asbasbasbag62
(g78
g64
NtRp3122
(dp3123
g67
(dp3124
sg76
g2845
sg69
(lp3125
g62
(g83
g64
NtRp3126
(dp3127
g67
(dp3128
g87
g88
ssg76
g3122
sg69
(lp3129
S'REQUEST_METHOD'
p3130
asbag62
(g83
g64
NtRp3131
(dp3132
g67
(dp3133
g94
g95
ssg76
g3122
sg69
(lp3134
S':'
asbag62
(g83
g64
NtRp3135
(dp3136
g67
(dp3137
sg76
g3122
sg69
(lp3138
g62
(g63
g64
NtRp3139
(dp3140
g67
(dp3141
g75
I3
ssg76
g3135
sg69
(lp3142
g1704
asbasbasbag62
(g78
g64
NtRp3143
(dp3144
g67
(dp3145
sg76
g2845
sg69
(lp3146
g62
(g83
g64
NtRp3147
(dp3148
g67
(dp3149
g87
g88
ssg76
g3143
sg69
(lp3150
S'REQUEST_URI'
p3151
asbag62
(g83
g64
NtRp3152
(dp3153
g67
(dp3154
g94
g95
ssg76
g3143
sg69
(lp3155
S':'
asbag62
(g83
g64
NtRp3156
(dp3157
g67
(dp3158
sg76
g3143
sg69
(lp3159
g62
(g63
g64
NtRp3160
(dp3161
g67
(dp3162
g75
I3
ssg76
g3156
sg69
(lp3163
g1618
asbasbasbag62
(g78
g64
NtRp3164
(dp3165
g67
(dp3166
sg76
g2845
sg69
(lp3167
g62
(g83
g64
NtRp3168
(dp3169
g67
(dp3170
g87
g88
ssg76
g3164
sg69
(lp3171
S'SCRIPT_NAME'
p3172
asbag62
(g83
g64
NtRp3173
(dp3174
g67
(dp3175
g94
g95
ssg76
g3164
sg69
(lp3176
S':'
asbag62
(g83
g64
NtRp3177
(dp3178
g67
(dp3179
sg76
g3164
sg69
(lp3180
g62
(g63
g64
NtRp3181
(dp3182
g67
(dp3183
g75
I3
ssg76
g3177
sg69
(lp3184
S''
asbasbasbag62
(g78
g64
NtRp3185
(dp3186
g67
(dp3187
sg76
g2845
sg69
(lp3188
g62
(g83
g64
NtRp3189
(dp3190
g67
(dp3191
g87
g88
ssg76
g3185
sg69
(lp3192
S'SERVER_NAME'
p3193
asbag62
(g83
g64
NtRp3194
(dp3195
g67
(dp3196
g94
g95
ssg76
g3185
sg69
(lp3197
S':'
asbag62
(g83
g64
NtRp3198
(dp3199
g67
(dp3200
sg76
g3185
sg69
(lp3201
g62
(g63
g64
NtRp3202
(dp3203
g67
(dp3204
g75
I3
ssg76
g3198
sg69
(lp3205
g1768
asbasbasbag62
(g78
g64
NtRp3206
(dp3207
g67
(dp3208
sg76
g2845
sg69
(lp3209
g62
(g83
g64
NtRp3210
(dp3211
g67
(dp3212
g87
g88
ssg76
g3206
sg69
(lp3213
S'SERVER_PORT'
p3214
asbag62
(g83
g64
NtRp3215
(dp3216
g67
(dp3217
g94
g95
ssg76
g3206
sg69
(lp3218
S':'
asbag62
(g83
g64
NtRp3219
(dp3220
g67
(dp3221
sg76
g3206
sg69
(lp3222
g62
(g63
g64
NtRp3223
(dp3224
g67
(dp3225
g75
I3
ssg76
g3219
sg69
(lp3226
g1790
asbasbasbag62
(g78
g64
NtRp3227
(dp3228
g67
(dp3229
sg76
g2845
sg69
(lp3230
g62
(g83
g64
NtRp3231
(dp3232
g67
(dp3233
g87
g88
ssg76
g3227
sg69
(lp3234
S'SERVER_PROTOCOL'
p3235
asbag62
(g83
g64
NtRp3236
(dp3237
g67
(dp3238
g94
g95
ssg76
g3227
sg69
(lp3239
S':'
asbag62
(g83
g64
NtRp3240
(dp3241
g67
(dp3242
sg76
g3227
sg69
(lp3243
g62
(g63
g64
NtRp3244
(dp3245
g67
(dp3246
g75
I3
ssg76
g3240
sg69
(lp3247
g1812
asbasbasbag62
(g78
g64
NtRp3248
(dp3249
g67
(dp3250
sg76
g2845
sg69
(lp3251
g62
(g83
g64
NtRp3252
(dp3253
g67
(dp3254
g87
g88
ssg76
g3248
sg69
(lp3255
S'SERVER_SOFTWARE'
p3256
asbag62
(g83
g64
NtRp3257
(dp3258
g67
(dp3259
g94
g95
ssg76
g3248
sg69
(lp3260
S':'
asbag62
(g83
g64
NtRp3261
(dp3262
g67
(dp3263
sg76
g3248
sg69
(lp3264
g62
(g63
g64
NtRp3265
(dp3266
g67
(dp3267
g75
I3
ssg76
g3261
sg69
(lp3268
g1834
asbasbasbag62
(g78
g64
NtRp3269
(dp3270
g67
(dp3271
sg76
g2845
sg69
(lp3272
g62
(g83
g64
NtRp3273
(dp3274
g67
(dp3275
g87
g88
ssg76
g3269
sg69
(lp3276
S'WEB2PY_ORIGINAL_URI'
p3277
asbag62
(g83
g64
NtRp3278
(dp3279
g67
(dp3280
g94
g95
ssg76
g3269
sg69
(lp3281
S':'
asbag62
(g83
g64
NtRp3282
(dp3283
g67
(dp3284
sg76
g3269
sg69
(lp3285
g62
(g63
g64
NtRp3286
(dp3287
g67
(dp3288
g75
I3
ssg76
g3282
sg69
(lp3289
g1878
asbasbasbag62
(g78
g64
NtRp3290
(dp3291
g67
(dp3292
sg76
g2845
sg69
(lp3293
g62
(g83
g64
NtRp3294
(dp3295
g67
(dp3296
g87
g88
ssg76
g3290
sg69
(lp3297
S'wsgi.errors'
p3298
asbag62
(g83
g64
NtRp3299
(dp3300
g67
(dp3301
g94
g95
ssg76
g3290
sg69
(lp3302
S':'
asbag62
(g83
g64
NtRp3303
(dp3304
g67
(dp3305
sg76
g3290
sg69
(lp3306
g62
(g63
g64
NtRp3307
(dp3308
g67
(dp3309
g75
I3
ssg76
g3303
sg69
(lp3310
S"<open file '<stderr>', mode 'w' at 0x7ff14f507270>"
p3311
asbasbasbag62
(g78
g64
NtRp3312
(dp3313
g67
(dp3314
sg76
g2845
sg69
(lp3315
g62
(g83
g64
NtRp3316
(dp3317
g67
(dp3318
g87
g88
ssg76
g3312
sg69
(lp3319
S'wsgi.file_wrapper'
p3320
asbag62
(g83
g64
NtRp3321
(dp3322
g67
(dp3323
g94
g95
ssg76
g3312
sg69
(lp3324
S':'
asbag62
(g83
g64
NtRp3325
(dp3326
g67
(dp3327
sg76
g3312
sg69
(lp3328
g62
(g63
g64
NtRp3329
(dp3330
g67
(dp3331
g75
I3
ssg76
g3325
sg69
(lp3332
S'<class wsgiref.util.FileWrapper at 0x2faba78>'
p3333
asbasbasbag62
(g78
g64
NtRp3334
(dp3335
g67
(dp3336
sg76
g2845
sg69
(lp3337
g62
(g83
g64
NtRp3338
(dp3339
g67
(dp3340
g87
g88
ssg76
g3334
sg69
(lp3341
S'wsgi.input'
p3342
asbag62
(g83
g64
NtRp3343
(dp3344
g67
(dp3345
g94
g95
ssg76
g3334
sg69
(lp3346
S':'
asbag62
(g83
g64
NtRp3347
(dp3348
g67
(dp3349
sg76
g3334
sg69
(lp3350
g62
(g63
g64
NtRp3351
(dp3352
g67
(dp3353
g75
I3
ssg76
g3347
sg69
(lp3354
S'<cStringIO.StringO object at 0x337a8f0>'
p3355
asbasbasbag62
(g78
g64
NtRp3356
(dp3357
g67
(dp3358
sg76
g2845
sg69
(lp3359
g62
(g83
g64
NtRp3360
(dp3361
g67
(dp3362
g87
g88
ssg76
g3356
sg69
(lp3363
S'wsgi.multiprocess'
p3364
asbag62
(g83
g64
NtRp3365
(dp3366
g67
(dp3367
g94
g95
ssg76
g3356
sg69
(lp3368
S':'
asbag62
(g83
g64
NtRp3369
(dp3370
g67
(dp3371
sg76
g3356
sg69
(lp3372
g62
(g63
g64
NtRp3373
(dp3374
g67
(dp3375
g75
I3
ssg76
g3369
sg69
(lp3376
g105
asbasbasbag62
(g78
g64
NtRp3377
(dp3378
g67
(dp3379
sg76
g2845
sg69
(lp3380
g62
(g83
g64
NtRp3381
(dp3382
g67
(dp3383
g87
g88
ssg76
g3377
sg69
(lp3384
S'wsgi.multithread'
p3385
asbag62
(g83
g64
NtRp3386
(dp3387
g67
(dp3388
g94
g95
ssg76
g3377
sg69
(lp3389
S':'
asbag62
(g83
g64
NtRp3390
(dp3391
g67
(dp3392
sg76
g3377
sg69
(lp3393
g62
(g63
g64
NtRp3394
(dp3395
g67
(dp3396
g75
I3
ssg76
g3390
sg69
(lp3397
g2096
asbasbasbag62
(g78
g64
NtRp3398
(dp3399
g67
(dp3400
sg76
g2845
sg69
(lp3401
g62
(g83
g64
NtRp3402
(dp3403
g67
(dp3404
g87
g88
ssg76
g3398
sg69
(lp3405
S'wsgi.run_once'
p3406
asbag62
(g83
g64
NtRp3407
(dp3408
g67
(dp3409
g94
g95
ssg76
g3398
sg69
(lp3410
S':'
asbag62
(g83
g64
NtRp3411
(dp3412
g67
(dp3413
sg76
g3398
sg69
(lp3414
g62
(g63
g64
NtRp3415
(dp3416
g67
(dp3417
g75
I3
ssg76
g3411
sg69
(lp3418
g105
asbasbasbag62
(g78
g64
NtRp3419
(dp3420
g67
(dp3421
sg76
g2845
sg69
(lp3422
g62
(g83
g64
NtRp3423
(dp3424
g67
(dp3425
g87
g88
ssg76
g3419
sg69
(lp3426
S'wsgi.url_scheme'
p3427
asbag62
(g83
g64
NtRp3428
(dp3429
g67
(dp3430
g94
g95
ssg76
g3419
sg69
(lp3431
S':'
asbag62
(g83
g64
NtRp3432
(dp3433
g67
(dp3434
sg76
g3419
sg69
(lp3435
g62
(g63
g64
NtRp3436
(dp3437
g67
(dp3438
g75
I3
ssg76
g3432
sg69
(lp3439
g2139
asbasbasbag62
(g78
g64
NtRp3440
(dp3441
g67
(dp3442
sg76
g2845
sg69
(lp3443
g62
(g83
g64
NtRp3444
(dp3445
g67
(dp3446
g87
g88
ssg76
g3440
sg69
(lp3447
S'wsgi.version'
p3448
asbag62
(g83
g64
NtRp3449
(dp3450
g67
(dp3451
g94
g95
ssg76
g3440
sg69
(lp3452
S':'
asbag62
(g83
g64
NtRp3453
(dp3454
g67
(dp3455
sg76
g3440
sg69
(lp3456
g62
(g63
g64
NtRp3457
(dp3458
g67
(dp3459
g75
I3
ssg76
g3453
sg69
(lp3460
S'1'
asbasbasbasbasbasbasbasbasbasbasbasbasbsS'frames'
p3461
(lp3462
(dp3463
S'file'
p3464
S'/windows/Users/Thomas/Dropbox/appz/2011/dotcloud_web2py/gluon/restricted.py'
p3465
sS'dump'
p3466
(dp3467
S'environment'
p3468
S"{'A': <class 'gluon.html.A'>, 'B': <class 'gluon.html.B'>, 'BEAUTIFY': <class 'gluon.html.BEAUTIFY'>, 'BODY': <class 'gluon.html.BODY'>, 'BR': <class 'gluon.html.BR'>, 'BUTTON': <class 'gluon.html.BUTTON'>, 'CAT': <class 'gluon.html.CAT'>, 'CENTER': <class 'gluon.html.CENTER'>, 'CLEANUP': <class 'gluon.validators.CLEANUP'>, 'CODE': <class 'gluon.html.CODE'>, ...}"
p3469
sS'ccode'
p3470
S'<code object <module> at 0x3f7e630, file "/windo.../applications/fansubcheck/models/db.py", line 12>'
p3471
ssS'lnum'
p3472
I204
sS'lines'
p3473
(dp3474
I199
S'    try:'
p3475
sI200
S'        if type(code) == types.CodeType:'
p3476
sI201
S'            ccode = code'
p3477
sI202
S'        else:'
p3478
sI203
S'            ccode = compile2(code,layer)'
p3479
sI204
S'        exec ccode in environment'
p3480
sI205
S'    except HTTP:'
p3481
sI206
S'        raise'
p3482
sI207
S'    except RestrictedError:'
p3483
sI208
S'        # do not encapsulate (obfuscate) the original RestrictedError'
p3484
ssS'call'
p3485
S"(code='# -*- coding: utf-8 -*-\\n\\n#######################...ender\\nmail.settings.login = settings.email_login\\n', environment={'A': <class 'gluon.html.A'>, 'B': <class 'gluon.html.B'>, 'BEAUTIFY': <class 'gluon.html.BEAUTIFY'>, 'BODY': <class 'gluon.html.BODY'>, 'BR': <class 'gluon.html.BR'>, 'BUTTON': <class 'gluon.html.BUTTON'>, 'CAT': <class 'gluon.html.CAT'>, 'CENTER': <class 'gluon.html.CENTER'>, 'CLEANUP': <class 'gluon.validators.CLEANUP'>, 'CODE': <class 'gluon.html.CODE'>, ...}, layer='/windows/Users/Thomas/Dropbox/appz/2011/dotcloud_web2py/applications/fansubcheck/models/db.py')"
p3486
sS'func'
p3487
S'restricted'
p3488
sa(dp3489
g3464
S'/windows/Users/Thomas/Dropbox/appz/2011/dotcloud_web2py/applications/fansubcheck/models/db.py'
p3490
sg3466
(dp3491
S'builtinopen'
p3492
S'<built-in function open>'
p3493
sS'f'
S'undefined'
p3494
ssg3472
I24
sg3473
(dp3495
I19
S'    from gluon.contrib.pysimplesoap.client import response'
p3496
sI20
S''
sI21
S'if not request.env.web2py_runtime_gae:'
p3497
sI22
S'    ## if NOT running on Google App Engine use SQLite or other DB'
p3498
sI23
S"    db = DAL('sqlite://storage.sqlite')"
p3499
sI24
S"    with open('/home/dotcloud/environment.json') as f:"
p3500
sI25
S'        env = json.load(f)'
p3501
sI26
S'    db = DAL(\'postgres://\'+env[\'DOTCLOUD_DATA_MYSQL_LOGIN\']+\':\'+env[\'DOTCLOUD_DATA_MYSQL_PASSWORD\']+"@"+env[\'DOTCLOUD_DATA_MYSQL_HOST\']+":"+str(env[\'DOTCLOUD_DATA_MYSQL_PORT\'])+\'/template1\')'
p3502
sI27
S"    #db = DAL('mysql://fansubcheck:yE3xEAiFW9@fansubcheck.mysql.fluxflex.com:3306/fansubcheck')"
p3503
sI28
S'else:'
p3504
ssg3485
S'()'
p3505
sg3487
S'<module>'
p3506
sasS'pyver'
p3507
S'Python 2.7.2+: /usr/bin/python'
p3508
sS'session'
p3509
g62
(g63
g64
NtRp3510
(dp3511
g67
(dp3512
sg69
(lp3513
g62
(g71
g64
NtRp3514
(dp3515
g67
(dp3516
g75
I5
ssg76
Nsg69
(lp3517
g62
(g78
g64
NtRp3518
(dp3519
g67
(dp3520
sg76
g3514
sg69
(lp3521
g62
(g83
g64
NtRp3522
(dp3523
g67
(dp3524
g87
g88
ssg76
g3518
sg69
(lp3525
S'flash'
p3526
asbag62
(g83
g64
NtRp3527
(dp3528
g67
(dp3529
g94
g95
ssg76
g3518
sg69
(lp3530
S':'
asbag62
(g83
g64
NtRp3531
(dp3532
g67
(dp3533
sg76
g3518
sg69
(lp3534
g62
(g63
g64
NtRp3535
(dp3536
g67
(dp3537
g75
I5
ssg76
g3531
sg69
(lp3538
S''
asbasbasbasbasbsS'etype'
p3539
S"<type 'exceptions.IOError'>"
p3540
sS'date'
p3541
S'Sat Dec 31 12:28:14 2011'
p3542
sS'response'
p3543
g62
(g63
g64
NtRp3544
(dp3545
g67
(dp3546
sg69
(lp3547
g62
(g71
g64
NtRp3548
(dp3549
g67
(dp3550
g75
I5
ssg76
Nsg69
(lp3551
g62
(g78
g64
NtRp3552
(dp3553
g67
(dp3554
sg76
g3548
sg69
(lp3555
g62
(g83
g64
NtRp3556
(dp3557
g67
(dp3558
g87
g88
ssg76
g3552
sg69
(lp3559
g160
asbag62
(g83
g64
NtRp3560
(dp3561
g67
(dp3562
g94
g95
ssg76
g3552
sg69
(lp3563
S':'
asbag62
(g83
g64
NtRp3564
(dp3565
g67
(dp3566
sg76
g3552
sg69
(lp3567
g62
(g63
g64
NtRp3568
(dp3569
g67
(dp3570
g75
I5
ssg76
g3564
sg69
(lp3571
S'<cStringIO.StringO object at 0x36e7570>'
p3572
asbasbasbag62
(g78
g64
NtRp3573
(dp3574
g67
(dp3575
sg76
g3548
sg69
(lp3576
g62
(g83
g64
NtRp3577
(dp3578
g67
(dp3579
g87
g88
ssg76
g3573
sg69
(lp3580
g226
asbag62
(g83
g64
NtRp3581
(dp3582
g67
(dp3583
g94
g95
ssg76
g3573
sg69
(lp3584
S':'
asbag62
(g83
g64
NtRp3585
(dp3586
g67
(dp3587
sg76
g3573
sg69
(lp3588
g62
(g63
g64
NtRp3589
(dp3590
g67
(dp3591
g75
I5
ssg76
g3585
sg69
(lp3592
g62
(g71
g64
NtRp3593
(dp3594
g67
(dp3595
g75
I4
ssg76
Nsg69
(lp3596
g62
(g78
g64
NtRp3597
(dp3598
g67
(dp3599
sg76
g3593
sg69
(lp3600
g62
(g83
g64
NtRp3601
(dp3602
g67
(dp3603
g87
g88
ssg76
g3597
sg69
(lp3604
S'session_id_fansubcheck'
p3605
asbag62
(g83
g64
NtRp3606
(dp3607
g67
(dp3608
g94
g95
ssg76
g3597
sg69
(lp3609
S':'
asbag62
(g83
g64
NtRp3610
(dp3611
g67
(dp3612
sg76
g3597
sg69
(lp3613
g62
(g63
g64
NtRp3614
(dp3615
g67
(dp3616
g75
I4
ssg76
g3610
sg69
(lp3617
g62
(g71
g64
NtRp3618
(dp3619
g67
(dp3620
g75
I3
ssg76
Nsg69
(lp3621
g62
(g78
g64
NtRp3622
(dp3623
g67
(dp3624
sg76
g3618
sg69
(lp3625
g62
(g83
g64
NtRp3626
(dp3627
g67
(dp3628
g87
g88
ssg76
g3622
sg69
(lp3629
g276
asbag62
(g83
g64
NtRp3630
(dp3631
g67
(dp3632
g94
g95
ssg76
g3622
sg69
(lp3633
S':'
asbag62
(g83
g64
NtRp3634
(dp3635
g67
(dp3636
sg76
g3622
sg69
(lp3637
g62
(g63
g64
NtRp3638
(dp3639
g67
(dp3640
g75
I3
ssg76
g3634
sg69
(lp3641
S''
asbasbasbag62
(g78
g64
NtRp3642
(dp3643
g67
(dp3644
sg76
g3618
sg69
(lp3645
g62
(g83
g64
NtRp3646
(dp3647
g67
(dp3648
g87
g88
ssg76
g3642
sg69
(lp3649
g297
asbag62
(g83
g64
NtRp3650
(dp3651
g67
(dp3652
g94
g95
ssg76
g3642
sg69
(lp3653
S':'
asbag62
(g83
g64
NtRp3654
(dp3655
g67
(dp3656
sg76
g3642
sg69
(lp3657
g62
(g63
g64
NtRp3658
(dp3659
g67
(dp3660
g75
I3
ssg76
g3654
sg69
(lp3661
S''
asbasbasbag62
(g78
g64
NtRp3662
(dp3663
g67
(dp3664
sg76
g3618
sg69
(lp3665
g62
(g83
g64
NtRp3666
(dp3667
g67
(dp3668
g87
g88
ssg76
g3662
sg69
(lp3669
g318
asbag62
(g83
g64
NtRp3670
(dp3671
g67
(dp3672
g94
g95
ssg76
g3662
sg69
(lp3673
S':'
asbag62
(g83
g64
NtRp3674
(dp3675
g67
(dp3676
sg76
g3662
sg69
(lp3677
g62
(g63
g64
NtRp3678
(dp3679
g67
(dp3680
g75
I3
ssg76
g3674
sg69
(lp3681
S''
asbasbasbag62
(g78
g64
NtRp3682
(dp3683
g67
(dp3684
sg76
g3618
sg69
(lp3685
g62
(g83
g64
NtRp3686
(dp3687
g67
(dp3688
g87
g88
ssg76
g3682
sg69
(lp3689
g339
asbag62
(g83
g64
NtRp3690
(dp3691
g67
(dp3692
g94
g95
ssg76
g3682
sg69
(lp3693
S':'
asbag62
(g83
g64
NtRp3694
(dp3695
g67
(dp3696
sg76
g3682
sg69
(lp3697
g62
(g63
g64
NtRp3698
(dp3699
g67
(dp3700
g75
I3
ssg76
g3694
sg69
(lp3701
S''
asbasbasbag62
(g78
g64
NtRp3702
(dp3703
g67
(dp3704
sg76
g3618
sg69
(lp3705
g62
(g83
g64
NtRp3706
(dp3707
g67
(dp3708
g87
g88
ssg76
g3702
sg69
(lp3709
g360
asbag62
(g83
g64
NtRp3710
(dp3711
g67
(dp3712
g94
g95
ssg76
g3702
sg69
(lp3713
S':'
asbag62
(g83
g64
NtRp3714
(dp3715
g67
(dp3716
sg76
g3702
sg69
(lp3717
g62
(g63
g64
NtRp3718
(dp3719
g67
(dp3720
g75
I3
ssg76
g3714
sg69
(lp3721
S''
asbasbasbag62
(g78
g64
NtRp3722
(dp3723
g67
(dp3724
sg76
g3618
sg69
(lp3725
g62
(g83
g64
NtRp3726
(dp3727
g67
(dp3728
g87
g88
ssg76
g3722
sg69
(lp3729
g381
asbag62
(g83
g64
NtRp3730
(dp3731
g67
(dp3732
g94
g95
ssg76
g3722
sg69
(lp3733
S':'
asbag62
(g83
g64
NtRp3734
(dp3735
g67
(dp3736
sg76
g3722
sg69
(lp3737
g62
(g63
g64
NtRp3738
(dp3739
g67
(dp3740
g75
I3
ssg76
g3734
sg69
(lp3741
S'/'
asbasbasbag62
(g78
g64
NtRp3742
(dp3743
g67
(dp3744
sg76
g3618
sg69
(lp3745
g62
(g83
g64
NtRp3746
(dp3747
g67
(dp3748
g87
g88
ssg76
g3742
sg69
(lp3749
g402
asbag62
(g83
g64
NtRp3750
(dp3751
g67
(dp3752
g94
g95
ssg76
g3742
sg69
(lp3753
S':'
asbag62
(g83
g64
NtRp3754
(dp3755
g67
(dp3756
sg76
g3742
sg69
(lp3757
g62
(g63
g64
NtRp3758
(dp3759
g67
(dp3760
g75
I3
ssg76
g3754
sg69
(lp3761
S''
asbasbasbag62
(g78
g64
NtRp3762
(dp3763
g67
(dp3764
sg76
g3618
sg69
(lp3765
g62
(g83
g64
NtRp3766
(dp3767
g67
(dp3768
g87
g88
ssg76
g3762
sg69
(lp3769
g423
asbag62
(g83
g64
NtRp3770
(dp3771
g67
(dp3772
g94
g95
ssg76
g3762
sg69
(lp3773
S':'
asbag62
(g83
g64
NtRp3774
(dp3775
g67
(dp3776
sg76
g3762
sg69
(lp3777
g62
(g63
g64
NtRp3778
(dp3779
g67
(dp3780
g75
I3
ssg76
g3774
sg69
(lp3781
S''
asbasbasbasbasbasbasbasbasbasbasbag62
(g78
g64
NtRp3782
(dp3783
g67
(dp3784
sg76
g3548
sg69
(lp3785
g62
(g83
g64
NtRp3786
(dp3787
g67
(dp3788
g87
g88
ssg76
g3782
sg69
(lp3789
S'files'
p3790
asbag62
(g83
g64
NtRp3791
(dp3792
g67
(dp3793
g94
g95
ssg76
g3782
sg69
(lp3794
S':'
asbag62
(g83
g64
NtRp3795
(dp3796
g67
(dp3797
sg76
g3782
sg69
(lp3798
g62
(g63
g64
NtRp3799
(dp3800
g67
(dp3801
g75
I5
ssg76
g3795
sg69
(lp3802
g62
(g71
g64
NtRp3803
(dp3804
g67
(dp3805
g75
I4
ssg76
Nsg69
(lp3806
sbasbasbasbag62
(g78
g64
NtRp3807
(dp3808
g67
(dp3809
sg76
g3548
sg69
(lp3810
g62
(g83
g64
NtRp3811
(dp3812
g67
(dp3813
g87
g88
ssg76
g3807
sg69
(lp3814
S'flash'
p3815
asbag62
(g83
g64
NtRp3816
(dp3817
g67
(dp3818
g94
g95
ssg76
g3807
sg69
(lp3819
S':'
asbag62
(g83
g64
NtRp3820
(dp3821
g67
(dp3822
sg76
g3807
sg69
(lp3823
g62
(g63
g64
NtRp3824
(dp3825
g67
(dp3826
g75
I5
ssg76
g3820
sg69
(lp3827
S''
asbasbasbag62
(g78
g64
NtRp3828
(dp3829
g67
(dp3830
sg76
g3548
sg69
(lp3831
g62
(g83
g64
NtRp3832
(dp3833
g67
(dp3834
g87
g88
ssg76
g3828
sg69
(lp3835
S'generic_patterns'
p3836
asbag62
(g83
g64
NtRp3837
(dp3838
g67
(dp3839
g94
g95
ssg76
g3828
sg69
(lp3840
S':'
asbag62
(g83
g64
NtRp3841
(dp3842
g67
(dp3843
sg76
g3828
sg69
(lp3844
g62
(g63
g64
NtRp3845
(dp3846
g67
(dp3847
g75
I5
ssg76
g3841
sg69
(lp3848
g62
(g71
g64
NtRp3849
(dp3850
g67
(dp3851
g75
I4
ssg76
Nsg69
(lp3852
sbasbasbasbag62
(g78
g64
NtRp3853
(dp3854
g67
(dp3855
sg76
g3548
sg69
(lp3856
g62
(g83
g64
NtRp3857
(dp3858
g67
(dp3859
g87
g88
ssg76
g3853
sg69
(lp3860
S'headers'
p3861
asbag62
(g83
g64
NtRp3862
(dp3863
g67
(dp3864
g94
g95
ssg76
g3853
sg69
(lp3865
S':'
asbag62
(g83
g64
NtRp3866
(dp3867
g67
(dp3868
sg76
g3853
sg69
(lp3869
g62
(g63
g64
NtRp3870
(dp3871
g67
(dp3872
g75
I5
ssg76
g3866
sg69
(lp3873
g62
(g71
g64
NtRp3874
(dp3875
g67
(dp3876
g75
I4
ssg76
Nsg69
(lp3877
g62
(g78
g64
NtRp3878
(dp3879
g67
(dp3880
sg76
g3874
sg69
(lp3881
g62
(g83
g64
NtRp3882
(dp3883
g67
(dp3884
g87
g88
ssg76
g3878
sg69
(lp3885
S'Cache-Control'
p3886
asbag62
(g83
g64
NtRp3887
(dp3888
g67
(dp3889
g94
g95
ssg76
g3878
sg69
(lp3890
S':'
asbag62
(g83
g64
NtRp3891
(dp3892
g67
(dp3893
sg76
g3878
sg69
(lp3894
g62
(g63
g64
NtRp3895
(dp3896
g67
(dp3897
g75
I4
ssg76
g3891
sg69
(lp3898
S'no-store, no-cache, must-revalidate, post-check=0, pre-check=0'
p3899
asbasbasbag62
(g78
g64
NtRp3900
(dp3901
g67
(dp3902
sg76
g3874
sg69
(lp3903
g62
(g83
g64
NtRp3904
(dp3905
g67
(dp3906
g87
g88
ssg76
g3900
sg69
(lp3907
S'Content-Type'
p3908
asbag62
(g83
g64
NtRp3909
(dp3910
g67
(dp3911
g94
g95
ssg76
g3900
sg69
(lp3912
S':'
asbag62
(g83
g64
NtRp3913
(dp3914
g67
(dp3915
sg76
g3900
sg69
(lp3916
g62
(g63
g64
NtRp3917
(dp3918
g67
(dp3919
g75
I4
ssg76
g3913
sg69
(lp3920
S'text/html; charset=utf-8'
p3921
asbasbasbag62
(g78
g64
NtRp3922
(dp3923
g67
(dp3924
sg76
g3874
sg69
(lp3925
g62
(g83
g64
NtRp3926
(dp3927
g67
(dp3928
g87
g88
ssg76
g3922
sg69
(lp3929
S'Expires'
p3930
asbag62
(g83
g64
NtRp3931
(dp3932
g67
(dp3933
g94
g95
ssg76
g3922
sg69
(lp3934
S':'
asbag62
(g83
g64
NtRp3935
(dp3936
g67
(dp3937
sg76
g3922
sg69
(lp3938
g62
(g63
g64
NtRp3939
(dp3940
g67
(dp3941
g75
I4
ssg76
g3935
sg69
(lp3942
S'Sat, 31 Dec 2011 03:28:14 GMT'
p3943
asbasbasbag62
(g78
g64
NtRp3944
(dp3945
g67
(dp3946
sg76
g3874
sg69
(lp3947
g62
(g83
g64
NtRp3948
(dp3949
g67
(dp3950
g87
g88
ssg76
g3944
sg69
(lp3951
S'Pragma'
p3952
asbag62
(g83
g64
NtRp3953
(dp3954
g67
(dp3955
g94
g95
ssg76
g3944
sg69
(lp3956
S':'
asbag62
(g83
g64
NtRp3957
(dp3958
g67
(dp3959
sg76
g3944
sg69
(lp3960
g62
(g63
g64
NtRp3961
(dp3962
g67
(dp3963
g75
I4
ssg76
g3957
sg69
(lp3964
S'no-cache'
p3965
asbasbasbag62
(g78
g64
NtRp3966
(dp3967
g67
(dp3968
sg76
g3874
sg69
(lp3969
g62
(g83
g64
NtRp3970
(dp3971
g67
(dp3972
g87
g88
ssg76
g3966
sg69
(lp3973
S'X-Powered-By'
p3974
asbag62
(g83
g64
NtRp3975
(dp3976
g67
(dp3977
g94
g95
ssg76
g3966
sg69
(lp3978
S':'
asbag62
(g83
g64
NtRp3979
(dp3980
g67
(dp3981
sg76
g3966
sg69
(lp3982
g62
(g63
g64
NtRp3983
(dp3984
g67
(dp3985
g75
I4
ssg76
g3979
sg69
(lp3986
S'web2py'
p3987
asbasbasbasbasbasbasbag62
(g78
g64
NtRp3988
(dp3989
g67
(dp3990
sg76
g3548
sg69
(lp3991
g62
(g83
g64
NtRp3992
(dp3993
g67
(dp3994
g87
g88
ssg76
g3988
sg69
(lp3995
S'menu'
p3996
asbag62
(g83
g64
NtRp3997
(dp3998
g67
(dp3999
g94
g95
ssg76
g3988
sg69
(lp4000
S':'
asbag62
(g83
g64
NtRp4001
(dp4002
g67
(dp4003
sg76
g3988
sg69
(lp4004
g62
(g63
g64
NtRp4005
(dp4006
g67
(dp4007
g75
I5
ssg76
g4001
sg69
(lp4008
g62
(g71
g64
NtRp4009
(dp4010
g67
(dp4011
g75
I4
ssg76
Nsg69
(lp4012
sbasbasbasbag62
(g78
g64
NtRp4013
(dp4014
g67
(dp4015
sg76
g3548
sg69
(lp4016
g62
(g83
g64
NtRp4017
(dp4018
g67
(dp4019
g87
g88
ssg76
g4013
sg69
(lp4020
S'meta'
p4021
asbag62
(g83
g64
NtRp4022
(dp4023
g67
(dp4024
g94
g95
ssg76
g4013
sg69
(lp4025
S':'
asbag62
(g83
g64
NtRp4026
(dp4027
g67
(dp4028
sg76
g4013
sg69
(lp4029
g62
(g63
g64
NtRp4030
(dp4031
g67
(dp4032
g75
I5
ssg76
g4026
sg69
(lp4033
g62
(g71
g64
NtRp4034
(dp4035
g67
(dp4036
g75
I4
ssg76
Nsg69
(lp4037
sbasbasbasbag62
(g78
g64
NtRp4038
(dp4039
g67
(dp4040
sg76
g3548
sg69
(lp4041
g62
(g83
g64
NtRp4042
(dp4043
g67
(dp4044
g87
g88
ssg76
g4038
sg69
(lp4045
S'postprocessing'
p4046
asbag62
(g83
g64
NtRp4047
(dp4048
g67
(dp4049
g94
g95
ssg76
g4038
sg69
(lp4050
S':'
asbag62
(g83
g64
NtRp4051
(dp4052
g67
(dp4053
sg76
g4038
sg69
(lp4054
g62
(g63
g64
NtRp4055
(dp4056
g67
(dp4057
g75
I5
ssg76
g4051
sg69
(lp4058
g62
(g71
g64
NtRp4059
(dp4060
g67
(dp4061
g75
I4
ssg76
Nsg69
(lp4062
sbasbasbasbag62
(g78
g64
NtRp4063
(dp4064
g67
(dp4065
sg76
g3548
sg69
(lp4066
g62
(g83
g64
NtRp4067
(dp4068
g67
(dp4069
g87
g88
ssg76
g4063
sg69
(lp4070
S'session_file'
p4071
asbag62
(g83
g64
NtRp4072
(dp4073
g67
(dp4074
g94
g95
ssg76
g4063
sg69
(lp4075
S':'
asbag62
(g83
g64
NtRp4076
(dp4077
g67
(dp4078
sg76
g4063
sg69
(lp4079
g62
(g63
g64
NtRp4080
(dp4081
g67
(dp4082
g75
I5
ssg76
g4076
sg69
(lp4083
S"<open file '/windows/Users/Thomas/Dropbox/appz/2011/dotcloud_web2py/applications/fansubcheck/sessions/127.0.0.1-bf3f1b47-a07f-4ce2-8e72-3ba2b00dab7a', mode 'rb+' at 0x41d9db0>"
p4084
asbasbasbag62
(g78
g64
NtRp4085
(dp4086
g67
(dp4087
sg76
g3548
sg69
(lp4088
g62
(g83
g64
NtRp4089
(dp4090
g67
(dp4091
g87
g88
ssg76
g4085
sg69
(lp4092
S'session_filename'
p4093
asbag62
(g83
g64
NtRp4094
(dp4095
g67
(dp4096
g94
g95
ssg76
g4085
sg69
(lp4097
S':'
asbag62
(g83
g64
NtRp4098
(dp4099
g67
(dp4100
sg76
g4085
sg69
(lp4101
g62
(g63
g64
NtRp4102
(dp4103
g67
(dp4104
g75
I5
ssg76
g4098
sg69
(lp4105
S'/windows/Users/Thomas/Dropbox/appz/2011/dotcloud_web2py/applications/fansubcheck/sessions/127.0.0.1-bf3f1b47-a07f-4ce2-8e72-3ba2b00dab7a'
p4106
asbasbasbag62
(g78
g64
NtRp4107
(dp4108
g67
(dp4109
sg76
g3548
sg69
(lp4110
g62
(g83
g64
NtRp4111
(dp4112
g67
(dp4113
g87
g88
ssg76
g4107
sg69
(lp4114
S'session_id'
p4115
asbag62
(g83
g64
NtRp4116
(dp4117
g67
(dp4118
g94
g95
ssg76
g4107
sg69
(lp4119
S':'
asbag62
(g83
g64
NtRp4120
(dp4121
g67
(dp4122
sg76
g4107
sg69
(lp4123
g62
(g63
g64
NtRp4124
(dp4125
g67
(dp4126
g75
I5
ssg76
g4120
sg69
(lp4127
S'127.0.0.1-bf3f1b47-a07f-4ce2-8e72-3ba2b00dab7a'
p4128
asbasbasbag62
(g78
g64
NtRp4129
(dp4130
g67
(dp4131
sg76
g3548
sg69
(lp4132
g62
(g83
g64
NtRp4133
(dp4134
g67
(dp4135
g87
g88
ssg76
g4129
sg69
(lp4136
S'session_id_name'
p4137
asbag62
(g83
g64
NtRp4138
(dp4139
g67
(dp4140
g94
g95
ssg76
g4129
sg69
(lp4141
S':'
asbag62
(g83
g64
NtRp4142
(dp4143
g67
(dp4144
sg76
g4129
sg69
(lp4145
g62
(g63
g64
NtRp4146
(dp4147
g67
(dp4148
g75
I5
ssg76
g4142
sg69
(lp4149
g3605
asbasbasbag62
(g78
g64
NtRp4150
(dp4151
g67
(dp4152
sg76
g3548
sg69
(lp4153
g62
(g83
g64
NtRp4154
(dp4155
g67
(dp4156
g87
g88
ssg76
g4150
sg69
(lp4157
S'session_locked'
p4158
asbag62
(g83
g64
NtRp4159
(dp4160
g67
(dp4161
g94
g95
ssg76
g4150
sg69
(lp4162
S':'
asbag62
(g83
g64
NtRp4163
(dp4164
g67
(dp4165
sg76
g4150
sg69
(lp4166
g62
(g63
g64
NtRp4167
(dp4168
g67
(dp4169
g75
I5
ssg76
g4163
sg69
(lp4170
g2096
asbasbasbag62
(g78
g64
NtRp4171
(dp4172
g67
(dp4173
sg76
g3548
sg69
(lp4174
g62
(g83
g64
NtRp4175
(dp4176
g67
(dp4177
g87
g88
ssg76
g4171
sg69
(lp4178
S'session_new'
p4179
asbag62
(g83
g64
NtRp4180
(dp4181
g67
(dp4182
g94
g95
ssg76
g4171
sg69
(lp4183
S':'
asbag62
(g83
g64
NtRp4184
(dp4185
g67
(dp4186
sg76
g4171
sg69
(lp4187
g62
(g63
g64
NtRp4188
(dp4189
g67
(dp4190
g75
I5
ssg76
g4184
sg69
(lp4191
g105
asbasbasbag62
(g78
g64
NtRp4192
(dp4193
g67
(dp4194
sg76
g3548
sg69
(lp4195
g62
(g83
g64
NtRp4196
(dp4197
g67
(dp4198
g87
g88
ssg76
g4192
sg69
(lp4199
S'status'
p4200
asbag62
(g83
g64
NtRp4201
(dp4202
g67
(dp4203
g94
g95
ssg76
g4192
sg69
(lp4204
S':'
asbag62
(g83
g64
NtRp4205
(dp4206
g67
(dp4207
sg76
g4192
sg69
(lp4208
g62
(g63
g64
NtRp4209
(dp4210
g67
(dp4211
g75
I5
ssg76
g4205
sg69
(lp4212
S'200'
p4213
asbasbasbag62
(g78
g64
NtRp4214
(dp4215
g67
(dp4216
sg76
g3548
sg69
(lp4217
g62
(g83
g64
NtRp4218
(dp4219
g67
(dp4220
g87
g88
ssg76
g4214
sg69
(lp4221
g2760
asbag62
(g83
g64
NtRp4222
(dp4223
g67
(dp4224
g94
g95
ssg76
g4214
sg69
(lp4225
S':'
asbag62
(g83
g64
NtRp4226
(dp4227
g67
(dp4228
sg76
g4214
sg69
(lp4229
g62
(g63
g64
NtRp4230
(dp4231
g67
(dp4232
g75
I5
ssg76
g4226
sg69
(lp4233
g2773
asbasbasbag62
(g78
g64
NtRp4234
(dp4235
g67
(dp4236
sg76
g3548
sg69
(lp4237
g62
(g83
g64
NtRp4238
(dp4239
g67
(dp4240
g87
g88
ssg76
g4234
sg69
(lp4241
S'view'
p4242
asbag62
(g83
g64
NtRp4243
(dp4244
g67
(dp4245
g94
g95
ssg76
g4234
sg69
(lp4246
S':'
asbag62
(g83
g64
NtRp4247
(dp4248
g67
(dp4249
sg76
g4234
sg69
(lp4250
g62
(g63
g64
NtRp4251
(dp4252
g67
(dp4253
g75
I5
ssg76
g4247
sg69
(lp4254
S'default/add_qc.html'
p4255
asbasbasbasbasbsS'locals'
p4256
(dp4257
S'OBJECT'
p4258
S"<class 'gluon.html.OBJECT'>"
p4259
sS'SQLDB'
p4260
S"<class 'gluon.dal.DAL'>"
p4261
sg3509
S"<Storage {'_user_agent': {'os': {'name': 'Linux'...login]': 'd71f2e51-6472-4250-8593-ccbb80b97b84'}>"
p4262
sS'LINK'
p4263
S"<class 'gluon.html.LINK'>"
p4264
sS'BR'
p4265
S"<class 'gluon.html.BR'>"
p4266
sS'local_import'
p4267
S'<function <lambda>>'
p4268
sS'OPTGROUP'
p4269
S"<class 'gluon.html.OPTGROUP'>"
p4270
sS'PRE'
p4271
S"<class 'gluon.html.PRE'>"
p4272
sS'IS_INT_IN_RANGE'
p4273
S"<class 'gluon.validators.IS_INT_IN_RANGE'>"
p4274
sS'IS_LOWER'
p4275
S"<class 'gluon.validators.IS_LOWER'>"
p4276
sS'IS_STRONG'
p4277
S"<class 'gluon.validators.IS_STRONG'>"
p4278
sS'cache'
p4279
S'<gluon.cache.Cache object>'
p4280
sS'IS_IN_DB'
p4281
S"<class 'gluon.validators.IS_IN_DB'>"
p4282
sS'TAG'
p4283
S'<gluon.html.__TAG__ object>'
p4284
sS'SQLField'
p4285
S"<class 'gluon.dal.Field'>"
p4286
sS'BODY'
p4287
S"<class 'gluon.html.BODY'>"
p4288
sS'IS_DATE_IN_RANGE'
p4289
S"<class 'gluon.validators.IS_DATE_IN_RANGE'>"
p4290
sS'IFRAME'
p4291
S"<class 'gluon.html.IFRAME'>"
p4292
sS'URL'
p4293
S'<function URL>'
p4294
sS'__file__'
p4295
S"'/windows/Users/Thomas/Dropbox/appz/2011/dotcloud_web2py/applications/fansubcheck/models/db.py'"
p4296
sS'db'
p4297
S"<DAL {'_migrate_enabled': True, '_lastsql': '', ...'_uri_hash': 'c8b669d15150d7109e5f7ab36744a5b7'}>"
p4298
sS'P'
S"<class 'gluon.html.P'>"
p4299
sS'TFOOT'
p4300
S"<class 'gluon.html.TFOOT'>"
p4301
sS'XHTML'
p4302
S"<class 'gluon.html.XHTML'>"
p4303
sS'ON'
p4304
g2096
sS'OL'
p4305
S"<class 'gluon.html.OL'>"
p4306
sS'TEXTAREA'
p4307
S"<class 'gluon.html.TEXTAREA'>"
p4308
sS'settings'
p4309
S"<Storage {'layout_theme': 'Default', 'subtitle':...l_server': 'localhost', 'login_method': 'local'}>"
p4310
sS'MENU'
p4311
S"<class 'gluon.html.MENU'>"
p4312
sS'EM'
p4313
S"<class 'gluon.html.EM'>"
p4314
sS'CODE'
p4315
S"<class 'gluon.html.CODE'>"
p4316
sS'HTTP'
p4317
S"<class 'gluon.http.HTTP'>"
p4318
sS'HR'
p4319
S"<class 'gluon.html.HR'>"
p4320
sS'IS_DATETIME'
p4321
S"<class 'gluon.validators.IS_DATETIME'>"
p4322
sS'Storage'
p4323
S"<class 'gluon.storage.Storage'>"
p4324
sS'STYLE'
p4325
S"<class 'gluon.html.STYLE'>"
p4326
sS'LABEL'
p4327
S"<class 'gluon.html.LABEL'>"
p4328
sS'CLEANUP'
p4329
S"<class 'gluon.validators.CLEANUP'>"
p4330
sS'SELECT'
p4331
S"<class 'gluon.html.SELECT'>"
p4332
sS'CENTER'
p4333
S"<class 'gluon.html.CENTER'>"
p4334
sS'__builtins__'
p4335
S"{'ArithmeticError': <type 'exceptions.ArithmeticError'>, 'AssertionError': <type 'exceptions.AssertionError'>, 'AttributeError': <type 'exceptions.AttributeError'>, 'BaseException': <type 'exceptions.BaseException'>, 'BufferError': <type 'exceptions.BufferError'>, 'BytesWarning': <type 'exceptions.BytesWarning'>, 'DeprecationWarning': <type 'exceptions.DeprecationWarning'>, 'EOFError': <type 'exceptions.EOFError'>, 'Ellipsis': Ellipsis, 'EnvironmentError': <type 'exceptions.EnvironmentError'>, ...}"
p4336
sS'HTML'
p4337
S"<class 'gluon.html.HTML'>"
p4338
sS'SQLFORM'
p4339
S"<class 'gluon.sqlhtml.SQLFORM'>"
p4340
sS'LOAD'
p4341
S'<function LOAD>'
p4342
sS'redirect'
p4343
S'<function redirect>'
p4344
sS'FIELDSET'
p4345
S"<class 'gluon.html.FIELDSET'>"
p4346
sS'IS_EQUAL_TO'
p4347
S"<class 'gluon.validators.IS_EQUAL_TO'>"
p4348
sS'embed64'
p4349
S'<function embed64>'
p4350
sS'IS_LIST_OF'
p4351
S"<class 'gluon.validators.IS_LIST_OF'>"
p4352
sS'INPUT'
p4353
S"<class 'gluon.html.INPUT'>"
p4354
sS'EMBED'
p4355
S"<class 'gluon.html.EMBED'>"
p4356
sS'FORM'
p4357
S"<class 'gluon.html.FORM'>"
p4358
sS'H2'
p4359
S"<class 'gluon.html.H2'>"
p4360
sS'H3'
p4361
S"<class 'gluon.html.H3'>"
p4362
sS'BUTTON'
p4363
S"<class 'gluon.html.BUTTON'>"
p4364
sS'H1'
p4365
S"<class 'gluon.html.H1'>"
p4366
sS'H6'
p4367
S"<class 'gluon.html.H6'>"
p4368
sS'H4'
p4369
S"<class 'gluon.html.H4'>"
p4370
sS'H5'
p4371
S"<class 'gluon.html.H5'>"
p4372
sS'UL'
p4373
S"<class 'gluon.html.UL'>"
p4374
sS'IS_UPPER'
p4375
S"<class 'gluon.validators.IS_UPPER'>"
p4376
sS'xmlescape'
p4377
S'<function xmlescape>'
p4378
sS'IS_TIME'
p4379
S"<class 'gluon.validators.IS_TIME'>"
p4380
sS'OPTION'
p4381
S"<class 'gluon.html.OPTION'>"
p4382
sS'TITLE'
p4383
S"<class 'gluon.html.TITLE'>"
p4384
sS'CRYPT'
p4385
S"<class 'gluon.validators.CRYPT'>"
p4386
sS'IS_EMPTY_OR'
p4387
S"<class 'gluon.validators.IS_EMPTY_OR'>"
p4388
sS'MARKMIN'
p4389
S"<class 'gluon.html.MARKMIN'>"
p4390
sS'COL'
p4391
S"<class 'gluon.html.COL'>"
p4392
sS'SCRIPT'
p4393
S"<class 'gluon.html.SCRIPT'>"
p4394
sS'json'
p4395
S"<module 'json' from '/usr/lib/python2.7/json/__init__.pyc'>"
p4396
sS'TABLE'
p4397
S"<class 'gluon.html.TABLE'>"
p4398
sS'IS_IPV4'
p4399
S"<class 'gluon.validators.IS_IPV4'>"
p4400
sS'IS_LENGTH'
p4401
S"<class 'gluon.validators.IS_LENGTH'>"
p4402
sS'XML'
p4403
S"<class 'gluon.html.XML'>"
p4404
sS'B'
S"<class 'gluon.html.B'>"
p4405
sS'IMG'
p4406
S"<class 'gluon.html.IMG'>"
p4407
sS'SQLTABLE'
p4408
S"<class 'gluon.sqlhtml.SQLTABLE'>"
p4409
sS'IS_MATCH'
p4410
S"<class 'gluon.validators.IS_MATCH'>"
p4411
sS'IS_ALPHANUMERIC'
p4412
S"<class 'gluon.validators.IS_ALPHANUMERIC'>"
p4413
sS'SPAN'
p4414
S"<class 'gluon.html.SPAN'>"
p4415
sS'IS_SLUG'
p4416
S"<class 'gluon.validators.IS_SLUG'>"
p4417
sS'META'
p4418
S"<class 'gluon.html.META'>"
p4419
sS'IS_DATE'
p4420
S"<class 'gluon.validators.IS_DATE'>"
p4421
sS'IS_EMAIL'
p4422
S"<class 'gluon.validators.IS_EMAIL'>"
p4423
sS'IS_NOT_EMPTY'
p4424
S"<class 'gluon.validators.IS_NOT_EMPTY'>"
p4425
sS'IS_FLOAT_IN_RANGE'
p4426
S"<class 'gluon.validators.IS_FLOAT_IN_RANGE'>"
p4427
sS'BEAUTIFY'
p4428
S"<class 'gluon.html.BEAUTIFY'>"
p4429
sS'TBODY'
p4430
S"<class 'gluon.html.TBODY'>"
p4431
sS'CAT'
p4432
S"<class 'gluon.html.CAT'>"
p4433
sS'Field'
p4434
S"<class 'gluon.dal.Field'>"
p4435
sS'DIV'
p4436
S"<class 'gluon.html.DIV'>"
p4437
sS'LEGEND'
p4438
S"<class 'gluon.html.LEGEND'>"
p4439
sS'COLGROUP'
p4440
S"<class 'gluon.html.COLGROUP'>"
p4441
sS'DAL'
p4442
S"<class 'gluon.dal.DAL'>"
p4443
sS'TT'
p4444
S"<class 'gluon.html.TT'>"
p4445
sS'TR'
p4446
S"<class 'gluon.html.TR'>"
p4447
sS'LI'
p4448
S"<class 'gluon.html.LI'>"
p4449
sS'TH'
p4450
S"<class 'gluon.html.TH'>"
p4451
sS'TD'
p4452
S"<class 'gluon.html.TD'>"
p4453
sS'IS_URL'
p4454
S"<class 'gluon.validators.IS_URL'>"
p4455
sS'A'
S"<class 'gluon.html.A'>"
p4456
sS'HEAD'
p4457
S"<class 'gluon.html.HEAD'>"
p4458
sS'IS_DATETIME_IN_RANGE'
p4459
S"<class 'gluon.validators.IS_DATETIME_IN_RANGE'>"
p4460
sS'IS_IMAGE'
p4461
S"<class 'gluon.validators.IS_IMAGE'>"
p4462
sS'I'
S"<class 'gluon.html.I'>"
p4463
sS'IS_NOT_IN_DB'
p4464
S"<class 'gluon.validators.IS_NOT_IN_DB'>"
p4465
sg3543
S"<Storage {'status': 200, 'body': <cStringIO.Stri...88>, 'files': [], 'view': 'default/add_qc.html'}>"
p4466
sS'THEAD'
p4467
S"<class 'gluon.html.THEAD'>"
p4468
sS'IS_NULL_OR'
p4469
S"<class 'gluon.validators.IS_EMPTY_OR'>"
p4470
sg61
S"<Storage {'body': <cStringIO.StringO object at 0..._vars': <Storage {}>, 'post_vars': <Storage {}>}>"
p4471
sS'IS_EXPR'
p4472
S"<class 'gluon.validators.IS_EXPR'>"
p4473
sS'IS_IN_SET'
p4474
S"<class 'gluon.validators.IS_IN_SET'>"
p4475
sS'IS_UPLOAD_FILENAME'
p4476
S"<class 'gluon.validators.IS_UPLOAD_FILENAME'>"
p4477
sS'IS_DECIMAL_IN_RANGE'
p4478
S"<class 'gluon.validators.IS_DECIMAL_IN_RANGE'>"
p4479
sS'T'
S'<gluon.languages.translator object>'
p4480
sssS'traceback'
p4481
S'Traceback (most recent call last):\n  File "/windows/Users/Thomas/Dropbox/appz/2011/dotcloud_web2py/gluon/restricted.py", line 204, in restricted\n    exec ccode in environment\n  File "/windows/Users/Thomas/Dropbox/appz/2011/dotcloud_web2py/applications/fansubcheck/models/db.py", line 24, in <module>\n    with open(\'/home/dotcloud/environment.json\') as f:\nIOError: [Errno 2] No such file or directory: \'/home/dotcloud/environment.json\'\n'
p4482
s.